   1               		.file	"mcp2515_set_dyn_filter.c"
   2               	__SP_H__ = 0x3e
   3               	__SP_L__ = 0x3d
   4               	__SREG__ = 0x3f
   5               	__tmp_reg__ = 0
   6               	__zero_reg__ = 1
   7               		.text
   8               	.Ltext0:
   9               		.cfi_sections	.debug_frame
  10               	.global	can_set_filter
  12               	can_set_filter:
  13               	.LVL0:
  14               	.LFB19:
  15               		.file 1 "mcp2515_set_dyn_filter.c"
   1:mcp2515_set_dyn_filter.c **** // ----------------------------------------------------------------------------
   2:mcp2515_set_dyn_filter.c **** /*
   3:mcp2515_set_dyn_filter.c ****  * Copyright (c) 2007 Fabian Greif, Roboterclub Aachen e.V.
   4:mcp2515_set_dyn_filter.c ****  *  All rights reserved.
   5:mcp2515_set_dyn_filter.c ****  *
   6:mcp2515_set_dyn_filter.c ****  * Redistribution and use in source and binary forms, with or without
   7:mcp2515_set_dyn_filter.c ****  * modification, are permitted provided that the following conditions
   8:mcp2515_set_dyn_filter.c ****  * are met:
   9:mcp2515_set_dyn_filter.c ****  * 1. Redistributions of source code must retain the above copyright
  10:mcp2515_set_dyn_filter.c ****  *    notice, this list of conditions and the following disclaimer.
  11:mcp2515_set_dyn_filter.c ****  * 2. Redistributions in binary form must reproduce the above copyright
  12:mcp2515_set_dyn_filter.c ****  *    notice, this list of conditions and the following disclaimer in the
  13:mcp2515_set_dyn_filter.c ****  *    documentation and/or other materials provided with the distribution.
  14:mcp2515_set_dyn_filter.c ****  *
  15:mcp2515_set_dyn_filter.c ****  * THIS SOFTWARE IS PROVIDED BY THE AUTHOR AND CONTRIBUTORS ``AS IS'' AND
  16:mcp2515_set_dyn_filter.c ****  * ANY EXPRESS OR IMPLIED WARRANTIES, INCLUDING, BUT NOT LIMITED TO, THE
  17:mcp2515_set_dyn_filter.c ****  * IMPLIED WARRANTIES OF MERCHANTABILITY AND FITNESS FOR A PARTICULAR PURPOSE
  18:mcp2515_set_dyn_filter.c ****  * ARE DISCLAIMED.  IN NO EVENT SHALL THE REGENTS OR CONTRIBUTORS BE LIABLE
  19:mcp2515_set_dyn_filter.c ****  * FOR ANY DIRECT, INDIRECT, INCIDENTAL, SPECIAL, EXEMPLARY, OR CONSEQUENTIAL
  20:mcp2515_set_dyn_filter.c ****  * DAMAGES (INCLUDING, BUT NOT LIMITED TO, PROCUREMENT OF SUBSTITUTE GOODS
  21:mcp2515_set_dyn_filter.c ****  * OR SERVICES; LOSS OF USE, DATA, OR PROFITS; OR BUSINESS INTERRUPTION)
  22:mcp2515_set_dyn_filter.c ****  * HOWEVER CAUSED AND ON ANY THEORY OF LIABILITY, WHETHER IN CONTRACT, STRICT
  23:mcp2515_set_dyn_filter.c ****  * LIABILITY, OR TORT (INCLUDING NEGLIGENCE OR OTHERWISE) ARISING IN ANY WAY
  24:mcp2515_set_dyn_filter.c ****  * OUT OF THE USE OF THIS SOFTWARE, EVEN IF ADVISED OF THE POSSIBILITY OF
  25:mcp2515_set_dyn_filter.c ****  * SUCH DAMAGE.
  26:mcp2515_set_dyn_filter.c ****  *
  27:mcp2515_set_dyn_filter.c ****  * $Id: mcp2515_set_dyn_filter.c 6837 2008-11-16 19:05:15Z fabian $
  28:mcp2515_set_dyn_filter.c ****  */
  29:mcp2515_set_dyn_filter.c **** // ----------------------------------------------------------------------------
  30:mcp2515_set_dyn_filter.c **** 
  31:mcp2515_set_dyn_filter.c **** #include "mcp2515_private.h"
  32:mcp2515_set_dyn_filter.c **** #ifdef	SUPPORT_FOR_MCP2515__
  33:mcp2515_set_dyn_filter.c **** 
  34:mcp2515_set_dyn_filter.c **** #include <util/delay.h>
  35:mcp2515_set_dyn_filter.c **** 
  36:mcp2515_set_dyn_filter.c **** // ----------------------------------------------------------------------------
  37:mcp2515_set_dyn_filter.c **** // set a filter
  38:mcp2515_set_dyn_filter.c **** 
  39:mcp2515_set_dyn_filter.c **** bool mcp2515_set_filter(uint8_t number, const can_filter_t *filter)
  40:mcp2515_set_dyn_filter.c **** {
  16               		.loc 1 40 1 view -0
  17               		.cfi_startproc
  18               		.loc 1 40 1 is_stmt 0 view .LVU1
  19 0000 EF92      		push r14
  20               	.LCFI0:
  21               		.cfi_def_cfa_offset 3
  22               		.cfi_offset 14, -2
  23 0002 FF92      		push r15
  24               	.LCFI1:
  25               		.cfi_def_cfa_offset 4
  26               		.cfi_offset 15, -3
  27 0004 0F93      		push r16
  28               	.LCFI2:
  29               		.cfi_def_cfa_offset 5
  30               		.cfi_offset 16, -4
  31 0006 1F93      		push r17
  32               	.LCFI3:
  33               		.cfi_def_cfa_offset 6
  34               		.cfi_offset 17, -5
  35 0008 CF93      		push r28
  36               	.LCFI4:
  37               		.cfi_def_cfa_offset 7
  38               		.cfi_offset 28, -6
  39 000a DF93      		push r29
  40               	.LCFI5:
  41               		.cfi_def_cfa_offset 8
  42               		.cfi_offset 29, -7
  43               	/* prologue: function */
  44               	/* frame size = 0 */
  45               	/* stack size = 6 */
  46               	.L__stack_usage = 6
  47 000c C82F      		mov r28,r24
  48 000e 7B01      		movw r14,r22
  41:mcp2515_set_dyn_filter.c **** 	uint8_t mask_address = 0;
  49               		.loc 1 41 2 is_stmt 1 view .LVU2
  50               	.LVL1:
  42:mcp2515_set_dyn_filter.c **** 	uint8_t mode = mcp2515_read_register(CANSTAT);
  51               		.loc 1 42 2 view .LVU3
  52               		.loc 1 42 17 is_stmt 0 view .LVU4
  53 0010 8EE0      		ldi r24,lo8(14)
  54               	.LVL2:
  55               		.loc 1 42 17 view .LVU5
  56 0012 0E94 0000 		call mcp2515_read_register
  57               	.LVL3:
  58               		.loc 1 42 17 view .LVU6
  59 0016 182F      		mov r17,r24
  60               	.LVL4:
  43:mcp2515_set_dyn_filter.c **** 	
  44:mcp2515_set_dyn_filter.c **** 	if (number > 5)
  61               		.loc 1 44 2 is_stmt 1 view .LVU7
  45:mcp2515_set_dyn_filter.c **** 		return false;
  62               		.loc 1 45 10 is_stmt 0 view .LVU8
  63 0018 80E0      		ldi r24,0
  44:mcp2515_set_dyn_filter.c **** 		return false;
  64               		.loc 1 44 5 view .LVU9
  65 001a C630      		cpi r28,lo8(6)
  66 001c 00F0      		brlo .+2
  67 001e 00C0      		rjmp .L1
  46:mcp2515_set_dyn_filter.c **** 	
  47:mcp2515_set_dyn_filter.c **** 	// change to configuration mode
  48:mcp2515_set_dyn_filter.c **** 	mcp2515_change_operation_mode( (1<<REQOP2) );
  68               		.loc 1 48 2 is_stmt 1 view .LVU10
  69               	.LVL5:
  70               	.LBB10:
  71               	.LBI10:
  72               		.file 2 "mcp2515_private.h"
   1:mcp2515_private.h **** // ----------------------------------------------------------------------------
   2:mcp2515_private.h **** /*
   3:mcp2515_private.h ****  * Copyright (c) 2007 Fabian Greif, Roboterclub Aachen e.V.
   4:mcp2515_private.h ****  *  All rights reserved.
   5:mcp2515_private.h ****  *
   6:mcp2515_private.h ****  * Redistribution and use in source and binary forms, with or without
   7:mcp2515_private.h ****  * modification, are permitted provided that the following conditions
   8:mcp2515_private.h ****  * are met:
   9:mcp2515_private.h ****  * 1. Redistributions of source code must retain the above copyright
  10:mcp2515_private.h ****  *    notice, this list of conditions and the following disclaimer.
  11:mcp2515_private.h ****  * 2. Redistributions in binary form must reproduce the above copyright
  12:mcp2515_private.h ****  *    notice, this list of conditions and the following disclaimer in the
  13:mcp2515_private.h ****  *    documentation and/or other materials provided with the distribution.
  14:mcp2515_private.h ****  *
  15:mcp2515_private.h ****  * THIS SOFTWARE IS PROVIDED BY THE AUTHOR AND CONTRIBUTORS ``AS IS'' AND
  16:mcp2515_private.h ****  * ANY EXPRESS OR IMPLIED WARRANTIES, INCLUDING, BUT NOT LIMITED TO, THE
  17:mcp2515_private.h ****  * IMPLIED WARRANTIES OF MERCHANTABILITY AND FITNESS FOR A PARTICULAR PURPOSE
  18:mcp2515_private.h ****  * ARE DISCLAIMED.  IN NO EVENT SHALL THE REGENTS OR CONTRIBUTORS BE LIABLE
  19:mcp2515_private.h ****  * FOR ANY DIRECT, INDIRECT, INCIDENTAL, SPECIAL, EXEMPLARY, OR CONSEQUENTIAL
  20:mcp2515_private.h ****  * DAMAGES (INCLUDING, BUT NOT LIMITED TO, PROCUREMENT OF SUBSTITUTE GOODS
  21:mcp2515_private.h ****  * OR SERVICES; LOSS OF USE, DATA, OR PROFITS; OR BUSINESS INTERRUPTION)
  22:mcp2515_private.h ****  * HOWEVER CAUSED AND ON ANY THEORY OF LIABILITY, WHETHER IN CONTRACT, STRICT
  23:mcp2515_private.h ****  * LIABILITY, OR TORT (INCLUDING NEGLIGENCE OR OTHERWISE) ARISING IN ANY WAY
  24:mcp2515_private.h ****  * OUT OF THE USE OF THIS SOFTWARE, EVEN IF ADVISED OF THE POSSIBILITY OF
  25:mcp2515_private.h ****  * SUCH DAMAGE.
  26:mcp2515_private.h ****  *
  27:mcp2515_private.h ****  * $Id: mcp2515_private.h 6910 2008-11-30 21:13:14Z fabian $
  28:mcp2515_private.h ****  */
  29:mcp2515_private.h **** // ----------------------------------------------------------------------------
  30:mcp2515_private.h **** 
  31:mcp2515_private.h **** #ifndef	MCP2515_PRIVATE_H
  32:mcp2515_private.h **** #define	MCP2515_PRIVATE_H
  33:mcp2515_private.h **** 
  34:mcp2515_private.h **** // ----------------------------------------------------------------------------
  35:mcp2515_private.h **** /**
  36:mcp2515_private.h ****  * \brief	defines only used inside the library
  37:mcp2515_private.h ****  *
  38:mcp2515_private.h ****  * \author	Fabian Greif <fabian.greif@rwth-aachen.de>
  39:mcp2515_private.h ****  * \version	$Id: mcp2515_private.h 6910 2008-11-30 21:13:14Z fabian $
  40:mcp2515_private.h ****  *
  41:mcp2515_private.h ****  * \todo	MCP2515_TXRTSn Pins nutzbar machen.
  42:mcp2515_private.h ****  */
  43:mcp2515_private.h **** // ----------------------------------------------------------------------------
  44:mcp2515_private.h **** 
  45:mcp2515_private.h **** #include <avr/io.h>
  46:mcp2515_private.h **** #include <avr/pgmspace.h>
  47:mcp2515_private.h **** #include <inttypes.h>
  48:mcp2515_private.h **** #include <stdbool.h>
  49:mcp2515_private.h **** 
  50:mcp2515_private.h **** #include "can.h"
  51:mcp2515_private.h **** #include "utils.h"
  52:mcp2515_private.h **** 
  53:mcp2515_private.h **** #include "can_private.h"
  54:mcp2515_private.h **** #include "spi.h"
  55:mcp2515_private.h **** 
  56:mcp2515_private.h **** // ----------------------------------------------------------------------------
  57:mcp2515_private.h **** 
  58:mcp2515_private.h **** #if (BUILD_FOR_MCP2515 == 1)
  59:mcp2515_private.h **** 	#if defined(__AVR_ATmega16__) || defined(__AVR_ATmega32__) || defined(__AVR_ATmega644__)
  60:mcp2515_private.h **** 		#define	P_MOSI	B,5
  61:mcp2515_private.h **** 		#define	P_MISO	B,6
  62:mcp2515_private.h **** 		#define	P_SCK	B,7
  63:mcp2515_private.h **** 		#define	SUPPORT_FOR_MCP2515__
  64:mcp2515_private.h **** 	#elif defined(__AVR_AT90USB82__) || defined(__AVR_AT90USB162__)
  65:mcp2515_private.h **** 		#define P_MOSI  B,2
  66:mcp2515_private.h **** 		#define P_MISO  B,3
  67:mcp2515_private.h **** 		#define P_SCK   B,1
  68:mcp2515_private.h **** 		#define SUPPORT_FOR_MCP2515__
  69:mcp2515_private.h **** 	#elif defined(__AVR_ATmega8__)  || defined(__AVR_ATmega48__) || \
  70:mcp2515_private.h **** 		  defined(__AVR_ATmega88__) || defined(__AVR_ATmega168__) || defined(__AVR_ATmega328P__)
  71:mcp2515_private.h **** 		#define	P_MOSI	B,3
  72:mcp2515_private.h **** 		#define	P_MISO	B,4
  73:mcp2515_private.h **** 		#define	P_SCK	B,5
  74:mcp2515_private.h **** 		#define	SUPPORT_FOR_MCP2515__
  75:mcp2515_private.h **** 	#elif defined(__AVR_ATmega128__)
  76:mcp2515_private.h **** 		#define	P_MOSI	B,2
  77:mcp2515_private.h **** 		#define	P_MISO	B,3
  78:mcp2515_private.h **** 		#define	P_SCK	B,1
  79:mcp2515_private.h **** 		#define	SUPPORT_FOR_MCP2515__
  80:mcp2515_private.h **** 	#elif defined(__AVR_ATtiny45__) || defined(__AVR_ATtiny85__)
  81:mcp2515_private.h **** 		#define	P_MOSI	B,0
  82:mcp2515_private.h **** 		#define	P_MISO	B,1
  83:mcp2515_private.h **** 		#define	P_SCK	B,2
  84:mcp2515_private.h **** 		
  85:mcp2515_private.h **** 		#define	USE_SOFTWARE_SPI		1
  86:mcp2515_private.h **** 		#define	SUPPORT_FOR_MCP2515__
  87:mcp2515_private.h **** 	#else
  88:mcp2515_private.h **** 		#error	choosen AVR-type is not supported yet!
  89:mcp2515_private.h **** 	#endif
  90:mcp2515_private.h **** #endif
  91:mcp2515_private.h **** 
  92:mcp2515_private.h **** 
  93:mcp2515_private.h **** #ifdef  SUPPORT_FOR_MCP2515__
  94:mcp2515_private.h **** 
  95:mcp2515_private.h **** // ----------------------------------------------------------------------------
  96:mcp2515_private.h **** // load some default values
  97:mcp2515_private.h **** 
  98:mcp2515_private.h **** #ifndef	MCP2515_CLKOUT_PRESCALER
  99:mcp2515_private.h **** 	#define	MCP2515_CLKOUT_PRESCALER	0
 100:mcp2515_private.h **** #endif
 101:mcp2515_private.h **** #ifndef	MCP2515_INTERRUPTS
 102:mcp2515_private.h **** 	#define	MCP2515_INTERRUPTS			(1<<RX1IE)|(1<<RX0IE)
 103:mcp2515_private.h **** #endif
 104:mcp2515_private.h **** 
 105:mcp2515_private.h **** // ----------------------------------------------------------------------------
 106:mcp2515_private.h **** // TODO: this file is imcompatible with the at90can
 107:mcp2515_private.h **** #include "mcp2515_defs.h"
 108:mcp2515_private.h **** 
 109:mcp2515_private.h **** #ifndef	MCP2515_CS
 110:mcp2515_private.h **** 	#error	MCP2515_CS ist nicht definiert!
 111:mcp2515_private.h **** #endif
 112:mcp2515_private.h **** 
 113:mcp2515_private.h **** #if defined(MCP2515_RX0BF) && !defined(MCP2515_RX1BF)
 114:mcp2515_private.h **** 	#warning	only MCP2515_RX0BF but not MCP2515_RX1BF defined!
 115:mcp2515_private.h **** #elif !defined(MCP2515_RX0BF) && defined(MCP2515_RX1BF)
 116:mcp2515_private.h **** 	#warning	only MCP2515_RX1BF but not MCP2515_RX0BF defined!
 117:mcp2515_private.h **** #elif defined(MCP2515_RX0BF) && defined(MCP2515_RX1BF)
 118:mcp2515_private.h **** 	#define	RXnBF_FUNKTION
 119:mcp2515_private.h **** #endif
 120:mcp2515_private.h **** 
 121:mcp2515_private.h **** // -------------------------------------------------------------------------
 122:mcp2515_private.h **** /**
 123:mcp2515_private.h ****  * \brief	Beschreiben von internen Registern
 124:mcp2515_private.h ****  */
 125:mcp2515_private.h **** extern void mcp2515_write_register( uint8_t adress, uint8_t data );
 126:mcp2515_private.h **** 
 127:mcp2515_private.h **** // -------------------------------------------------------------------------
 128:mcp2515_private.h **** /**
 129:mcp2515_private.h ****  * \brief	Lesen der internen Register
 130:mcp2515_private.h ****  */
 131:mcp2515_private.h **** extern uint8_t mcp2515_read_register(uint8_t adress);
 132:mcp2515_private.h **** 
 133:mcp2515_private.h **** extern uint8_t mcp2515_read_status(uint8_t type);
 134:mcp2515_private.h **** 
 135:mcp2515_private.h **** // -------------------------------------------------------------------------
 136:mcp2515_private.h **** /**
 137:mcp2515_private.h ****  * \brief	Setzten/loeschen einzelner Bits
 138:mcp2515_private.h ****  *
 139:mcp2515_private.h ****  * Diese Funktionen laesst sich nur auf die Register BFPCTRL, 
 140:mcp2515_private.h ****  * TXRTSCTRL, CANCTRL, CNF1, CNF2, CNF3, CANINTE, CANINTF, EFLG,
 141:mcp2515_private.h ****  * TXB0CTRL, TXB1CTRL, TXB2CTRL, RXB0CTRL und RXB1CTRL anwenden.
 142:mcp2515_private.h ****  *
 143:mcp2515_private.h ****  * \see		Datenblatt des MCP2515, Registerbersichtstabelle
 144:mcp2515_private.h ****  */
 145:mcp2515_private.h **** extern void mcp2515_bit_modify(uint8_t adress, uint8_t mask, uint8_t data);
 146:mcp2515_private.h **** 
 147:mcp2515_private.h **** // -------------------------------------------------------------------------
 148:mcp2515_private.h **** extern __attribute__ ((gnu_inline)) inline void mcp2515_change_operation_mode(uint8_t mode)
  73               		.loc 2 148 49 view .LVU11
  74               	.LBB11:
 149:mcp2515_private.h **** {
 150:mcp2515_private.h **** 	mcp2515_bit_modify(CANCTRL, 0xe0, mode);
  75               		.loc 2 150 2 view .LVU12
  76 0020 40E8      		ldi r20,lo8(-128)
  77 0022 60EE      		ldi r22,lo8(-32)
  78 0024 8FE0      		ldi r24,lo8(15)
  79 0026 0E94 0000 		call mcp2515_bit_modify
  80               	.LVL6:
 151:mcp2515_private.h **** 	while ((mcp2515_read_register(CANSTAT) & 0xe0) != (mode & 0xe0))
  81               		.loc 2 151 2 view .LVU13
  82               	.L3:
 152:mcp2515_private.h **** 		;
  83               		.loc 2 152 3 view .LVU14
 151:mcp2515_private.h **** 	while ((mcp2515_read_register(CANSTAT) & 0xe0) != (mode & 0xe0))
  84               		.loc 2 151 8 view .LVU15
 151:mcp2515_private.h **** 	while ((mcp2515_read_register(CANSTAT) & 0xe0) != (mode & 0xe0))
  85               		.loc 2 151 10 is_stmt 0 view .LVU16
  86 002a 8EE0      		ldi r24,lo8(14)
  87 002c 0E94 0000 		call mcp2515_read_register
  88               	.LVL7:
 151:mcp2515_private.h **** 	while ((mcp2515_read_register(CANSTAT) & 0xe0) != (mode & 0xe0))
  89               		.loc 2 151 49 view .LVU17
  90 0030 D0E8      		ldi r29,lo8(-128)
  91 0032 D80F      		add r29,r24
  92 0034 D07E      		andi r29,lo8(-32)
 151:mcp2515_private.h **** 	while ((mcp2515_read_register(CANSTAT) & 0xe0) != (mode & 0xe0))
  93               		.loc 2 151 8 view .LVU18
  94 0036 01F4      		brne .L3
  95               	.LVL8:
 151:mcp2515_private.h **** 	while ((mcp2515_read_register(CANSTAT) & 0xe0) != (mode & 0xe0))
  96               		.loc 2 151 8 view .LVU19
  97               	.LBE11:
  98               	.LBE10:
  49:mcp2515_set_dyn_filter.c **** 	
  50:mcp2515_set_dyn_filter.c **** 	// set filter mask
  51:mcp2515_set_dyn_filter.c **** 	if (number == 0)
  99               		.loc 1 51 2 is_stmt 1 view .LVU20
 100               		.loc 1 51 5 is_stmt 0 view .LVU21
 101 0038 C111      		cpse r28,__zero_reg__
 102 003a 00C0      		rjmp .L4
  52:mcp2515_set_dyn_filter.c **** 	{
  53:mcp2515_set_dyn_filter.c **** 		mask_address = RXM0SIDH;
 103               		.loc 1 53 3 is_stmt 1 view .LVU22
 104               	.LVL9:
  54:mcp2515_set_dyn_filter.c **** 		
  55:mcp2515_set_dyn_filter.c **** 		#if SUPPORT_EXTENDED_CANID
  56:mcp2515_set_dyn_filter.c **** 			if (filter->flags.extended == 0x3) {
  57:mcp2515_set_dyn_filter.c **** 				// only extended identifier
  58:mcp2515_set_dyn_filter.c **** 				mcp2515_write_register(RXB0CTRL, (1<<RXM1));
  59:mcp2515_set_dyn_filter.c **** 			}
  60:mcp2515_set_dyn_filter.c **** 			else if (filter->flags.extended == 0x2) {
  61:mcp2515_set_dyn_filter.c **** 				// only standard identifier
  62:mcp2515_set_dyn_filter.c **** 				mcp2515_write_register(RXB0CTRL, (1<<RXM0));
  63:mcp2515_set_dyn_filter.c **** 			}
  64:mcp2515_set_dyn_filter.c **** 			else {
  65:mcp2515_set_dyn_filter.c **** 				// receive all messages
  66:mcp2515_set_dyn_filter.c **** 				mcp2515_write_register(RXB0CTRL, 0);
  67:mcp2515_set_dyn_filter.c **** 			}
  68:mcp2515_set_dyn_filter.c **** 		#else
  69:mcp2515_set_dyn_filter.c **** 			// Buffer 0: Empfangen aller Nachrichten mit Standard Identifier 
  70:mcp2515_set_dyn_filter.c **** 			// die den Filter Kriterien gengen
  71:mcp2515_set_dyn_filter.c **** 			mcp2515_write_register(RXB0CTRL, (1<<RXM0));
 105               		.loc 1 71 4 view .LVU23
 106 003c 60E2      		ldi r22,lo8(32)
 107 003e 80E6      		ldi r24,lo8(96)
 108 0040 0E94 0000 		call mcp2515_write_register
 109               	.LVL10:
  72:mcp2515_set_dyn_filter.c **** 		#endif
  73:mcp2515_set_dyn_filter.c **** 	}
  74:mcp2515_set_dyn_filter.c **** 	else if (number == 2)
  75:mcp2515_set_dyn_filter.c **** 	{
  76:mcp2515_set_dyn_filter.c **** 		mask_address = RXM1SIDH;
  77:mcp2515_set_dyn_filter.c **** 		
  78:mcp2515_set_dyn_filter.c **** 		#if SUPPORT_EXTENDED_CANID
  79:mcp2515_set_dyn_filter.c **** 			if (filter->flags.extended == 0x3) {
  80:mcp2515_set_dyn_filter.c **** 				// only extended identifier
  81:mcp2515_set_dyn_filter.c **** 				mcp2515_write_register(RXB1CTRL, (1<<RXM1));
  82:mcp2515_set_dyn_filter.c **** 			}
  83:mcp2515_set_dyn_filter.c **** 			else if (filter->flags.extended == 0x2) {
  84:mcp2515_set_dyn_filter.c **** 				// only standard identifier
  85:mcp2515_set_dyn_filter.c **** 				mcp2515_write_register(RXB1CTRL, (1<<RXM0));
  86:mcp2515_set_dyn_filter.c **** 			}
  87:mcp2515_set_dyn_filter.c **** 			else {
  88:mcp2515_set_dyn_filter.c **** 				mcp2515_write_register(RXB1CTRL, 0);
  89:mcp2515_set_dyn_filter.c **** 			}
  90:mcp2515_set_dyn_filter.c **** 		#else
  91:mcp2515_set_dyn_filter.c **** 			// Buffer 1: Empfangen aller Nachrichten mit Standard Identifier 
  92:mcp2515_set_dyn_filter.c **** 			// die den Filter Kriterien gengen
  93:mcp2515_set_dyn_filter.c **** 			mcp2515_write_register(RXB1CTRL, (1<<RXM0));
  94:mcp2515_set_dyn_filter.c **** 		#endif
  95:mcp2515_set_dyn_filter.c **** 	}
  96:mcp2515_set_dyn_filter.c **** 	
  97:mcp2515_set_dyn_filter.c **** 	if (mask_address)
 110               		.loc 1 97 2 view .LVU24
  53:mcp2515_set_dyn_filter.c **** 		
 111               		.loc 1 53 16 is_stmt 0 view .LVU25
 112 0044 00E2      		ldi r16,lo8(32)
 113               	.LVL11:
 114               	.L5:
  98:mcp2515_set_dyn_filter.c **** 	{
  99:mcp2515_set_dyn_filter.c **** 		RESET(MCP2515_CS);
 115               		.loc 1 99 3 is_stmt 1 view .LVU26
 116 0046 C098      		cbi 0x18,0
 100:mcp2515_set_dyn_filter.c **** 		spi_putc(SPI_WRITE);
 117               		.loc 1 100 3 view .LVU27
 118 0048 82E0      		ldi r24,lo8(2)
 119 004a 0E94 0000 		call spi_putc
 120               	.LVL12:
 101:mcp2515_set_dyn_filter.c **** 		spi_putc(mask_address);
 121               		.loc 1 101 3 view .LVU28
 122 004e 802F      		mov r24,r16
 123 0050 0E94 0000 		call spi_putc
 124               	.LVL13:
 102:mcp2515_set_dyn_filter.c **** 		#if SUPPORT_EXTENDED_CANID
 103:mcp2515_set_dyn_filter.c **** 			mcp2515_write_id(&filter->mask, (filter->flags.extended == 0x2) ? 0 : 1);
 104:mcp2515_set_dyn_filter.c **** 		#else
 105:mcp2515_set_dyn_filter.c **** 			mcp2515_write_id(&filter->mask);
 125               		.loc 1 105 4 view .LVU29
 126 0054 C701      		movw r24,r14
 127 0056 0296      		adiw r24,2
 128 0058 0E94 0000 		call mcp2515_write_id
 129               	.LVL14:
 106:mcp2515_set_dyn_filter.c **** 		#endif
 107:mcp2515_set_dyn_filter.c **** 		SET(MCP2515_CS);
 130               		.loc 1 107 3 view .LVU30
 131 005c C09A      		sbi 0x18,0
 108:mcp2515_set_dyn_filter.c **** 		
 109:mcp2515_set_dyn_filter.c **** 		_delay_us(1);
 132               		.loc 1 109 3 view .LVU31
 133               	.LVL15:
 134               	.LBB12:
 135               	.LBI12:
 136               		.file 3 "/opt/homebrew/Cellar/avr-gcc@9/9.3.0_3/avr/include/util/delay.h"
   1:/opt/homebrew/Cellar/avr-gcc@9/9.3.0_3/avr/include/util/delay.h **** /* Copyright (c) 2002, Marek Michalkiewicz
   2:/opt/homebrew/Cellar/avr-gcc@9/9.3.0_3/avr/include/util/delay.h ****    Copyright (c) 2004,2005,2007 Joerg Wunsch
   3:/opt/homebrew/Cellar/avr-gcc@9/9.3.0_3/avr/include/util/delay.h ****    Copyright (c) 2007  Florin-Viorel Petrov
   4:/opt/homebrew/Cellar/avr-gcc@9/9.3.0_3/avr/include/util/delay.h ****    All rights reserved.
   5:/opt/homebrew/Cellar/avr-gcc@9/9.3.0_3/avr/include/util/delay.h **** 
   6:/opt/homebrew/Cellar/avr-gcc@9/9.3.0_3/avr/include/util/delay.h ****    Redistribution and use in source and binary forms, with or without
   7:/opt/homebrew/Cellar/avr-gcc@9/9.3.0_3/avr/include/util/delay.h ****    modification, are permitted provided that the following conditions are met:
   8:/opt/homebrew/Cellar/avr-gcc@9/9.3.0_3/avr/include/util/delay.h **** 
   9:/opt/homebrew/Cellar/avr-gcc@9/9.3.0_3/avr/include/util/delay.h ****    * Redistributions of source code must retain the above copyright
  10:/opt/homebrew/Cellar/avr-gcc@9/9.3.0_3/avr/include/util/delay.h ****      notice, this list of conditions and the following disclaimer.
  11:/opt/homebrew/Cellar/avr-gcc@9/9.3.0_3/avr/include/util/delay.h **** 
  12:/opt/homebrew/Cellar/avr-gcc@9/9.3.0_3/avr/include/util/delay.h ****    * Redistributions in binary form must reproduce the above copyright
  13:/opt/homebrew/Cellar/avr-gcc@9/9.3.0_3/avr/include/util/delay.h ****      notice, this list of conditions and the following disclaimer in
  14:/opt/homebrew/Cellar/avr-gcc@9/9.3.0_3/avr/include/util/delay.h ****      the documentation and/or other materials provided with the
  15:/opt/homebrew/Cellar/avr-gcc@9/9.3.0_3/avr/include/util/delay.h ****      distribution.
  16:/opt/homebrew/Cellar/avr-gcc@9/9.3.0_3/avr/include/util/delay.h **** 
  17:/opt/homebrew/Cellar/avr-gcc@9/9.3.0_3/avr/include/util/delay.h ****    * Neither the name of the copyright holders nor the names of
  18:/opt/homebrew/Cellar/avr-gcc@9/9.3.0_3/avr/include/util/delay.h ****      contributors may be used to endorse or promote products derived
  19:/opt/homebrew/Cellar/avr-gcc@9/9.3.0_3/avr/include/util/delay.h ****      from this software without specific prior written permission.
  20:/opt/homebrew/Cellar/avr-gcc@9/9.3.0_3/avr/include/util/delay.h **** 
  21:/opt/homebrew/Cellar/avr-gcc@9/9.3.0_3/avr/include/util/delay.h ****   THIS SOFTWARE IS PROVIDED BY THE COPYRIGHT HOLDERS AND CONTRIBUTORS "AS IS"
  22:/opt/homebrew/Cellar/avr-gcc@9/9.3.0_3/avr/include/util/delay.h ****   AND ANY EXPRESS OR IMPLIED WARRANTIES, INCLUDING, BUT NOT LIMITED TO, THE
  23:/opt/homebrew/Cellar/avr-gcc@9/9.3.0_3/avr/include/util/delay.h ****   IMPLIED WARRANTIES OF MERCHANTABILITY AND FITNESS FOR A PARTICULAR PURPOSE
  24:/opt/homebrew/Cellar/avr-gcc@9/9.3.0_3/avr/include/util/delay.h ****   ARE DISCLAIMED. IN NO EVENT SHALL THE COPYRIGHT OWNER OR CONTRIBUTORS BE
  25:/opt/homebrew/Cellar/avr-gcc@9/9.3.0_3/avr/include/util/delay.h ****   LIABLE FOR ANY DIRECT, INDIRECT, INCIDENTAL, SPECIAL, EXEMPLARY, OR
  26:/opt/homebrew/Cellar/avr-gcc@9/9.3.0_3/avr/include/util/delay.h ****   CONSEQUENTIAL DAMAGES (INCLUDING, BUT NOT LIMITED TO, PROCUREMENT OF
  27:/opt/homebrew/Cellar/avr-gcc@9/9.3.0_3/avr/include/util/delay.h ****   SUBSTITUTE GOODS OR SERVICES; LOSS OF USE, DATA, OR PROFITS; OR BUSINESS
  28:/opt/homebrew/Cellar/avr-gcc@9/9.3.0_3/avr/include/util/delay.h ****   INTERRUPTION) HOWEVER CAUSED AND ON ANY THEORY OF LIABILITY, WHETHER IN
  29:/opt/homebrew/Cellar/avr-gcc@9/9.3.0_3/avr/include/util/delay.h ****   CONTRACT, STRICT LIABILITY, OR TORT (INCLUDING NEGLIGENCE OR OTHERWISE)
  30:/opt/homebrew/Cellar/avr-gcc@9/9.3.0_3/avr/include/util/delay.h ****   ARISING IN ANY WAY OUT OF THE USE OF THIS SOFTWARE, EVEN IF ADVISED OF THE
  31:/opt/homebrew/Cellar/avr-gcc@9/9.3.0_3/avr/include/util/delay.h ****   POSSIBILITY OF SUCH DAMAGE. */
  32:/opt/homebrew/Cellar/avr-gcc@9/9.3.0_3/avr/include/util/delay.h **** 
  33:/opt/homebrew/Cellar/avr-gcc@9/9.3.0_3/avr/include/util/delay.h **** /* $Id: delay.h.in 2506 2016-02-08 10:05:45Z joerg_wunsch $ */
  34:/opt/homebrew/Cellar/avr-gcc@9/9.3.0_3/avr/include/util/delay.h **** 
  35:/opt/homebrew/Cellar/avr-gcc@9/9.3.0_3/avr/include/util/delay.h **** #ifndef _UTIL_DELAY_H_
  36:/opt/homebrew/Cellar/avr-gcc@9/9.3.0_3/avr/include/util/delay.h **** #define _UTIL_DELAY_H_ 1
  37:/opt/homebrew/Cellar/avr-gcc@9/9.3.0_3/avr/include/util/delay.h **** 
  38:/opt/homebrew/Cellar/avr-gcc@9/9.3.0_3/avr/include/util/delay.h **** #ifndef __DOXYGEN__
  39:/opt/homebrew/Cellar/avr-gcc@9/9.3.0_3/avr/include/util/delay.h **** #  ifndef __HAS_DELAY_CYCLES
  40:/opt/homebrew/Cellar/avr-gcc@9/9.3.0_3/avr/include/util/delay.h **** #    define __HAS_DELAY_CYCLES 1
  41:/opt/homebrew/Cellar/avr-gcc@9/9.3.0_3/avr/include/util/delay.h **** #  endif
  42:/opt/homebrew/Cellar/avr-gcc@9/9.3.0_3/avr/include/util/delay.h **** #endif  /* __DOXYGEN__ */
  43:/opt/homebrew/Cellar/avr-gcc@9/9.3.0_3/avr/include/util/delay.h **** 
  44:/opt/homebrew/Cellar/avr-gcc@9/9.3.0_3/avr/include/util/delay.h **** #include <inttypes.h>
  45:/opt/homebrew/Cellar/avr-gcc@9/9.3.0_3/avr/include/util/delay.h **** #include <util/delay_basic.h>
  46:/opt/homebrew/Cellar/avr-gcc@9/9.3.0_3/avr/include/util/delay.h **** #include <math.h>
  47:/opt/homebrew/Cellar/avr-gcc@9/9.3.0_3/avr/include/util/delay.h **** 
  48:/opt/homebrew/Cellar/avr-gcc@9/9.3.0_3/avr/include/util/delay.h **** /** \file */
  49:/opt/homebrew/Cellar/avr-gcc@9/9.3.0_3/avr/include/util/delay.h **** /** \defgroup util_delay <util/delay.h>: Convenience functions for busy-wait delay loops
  50:/opt/homebrew/Cellar/avr-gcc@9/9.3.0_3/avr/include/util/delay.h ****     \code
  51:/opt/homebrew/Cellar/avr-gcc@9/9.3.0_3/avr/include/util/delay.h ****     #define F_CPU 1000000UL  // 1 MHz
  52:/opt/homebrew/Cellar/avr-gcc@9/9.3.0_3/avr/include/util/delay.h ****     //#define F_CPU 14.7456E6
  53:/opt/homebrew/Cellar/avr-gcc@9/9.3.0_3/avr/include/util/delay.h ****     #include <util/delay.h>
  54:/opt/homebrew/Cellar/avr-gcc@9/9.3.0_3/avr/include/util/delay.h ****     \endcode
  55:/opt/homebrew/Cellar/avr-gcc@9/9.3.0_3/avr/include/util/delay.h **** 
  56:/opt/homebrew/Cellar/avr-gcc@9/9.3.0_3/avr/include/util/delay.h ****     \note As an alternative method, it is possible to pass the
  57:/opt/homebrew/Cellar/avr-gcc@9/9.3.0_3/avr/include/util/delay.h ****     F_CPU macro down to the compiler from the Makefile.
  58:/opt/homebrew/Cellar/avr-gcc@9/9.3.0_3/avr/include/util/delay.h ****     Obviously, in that case, no \c \#define statement should be
  59:/opt/homebrew/Cellar/avr-gcc@9/9.3.0_3/avr/include/util/delay.h ****     used.
  60:/opt/homebrew/Cellar/avr-gcc@9/9.3.0_3/avr/include/util/delay.h **** 
  61:/opt/homebrew/Cellar/avr-gcc@9/9.3.0_3/avr/include/util/delay.h ****     The functions in this header file are wrappers around the basic
  62:/opt/homebrew/Cellar/avr-gcc@9/9.3.0_3/avr/include/util/delay.h ****     busy-wait functions from <util/delay_basic.h>.  They are meant as
  63:/opt/homebrew/Cellar/avr-gcc@9/9.3.0_3/avr/include/util/delay.h ****     convenience functions where actual time values can be specified
  64:/opt/homebrew/Cellar/avr-gcc@9/9.3.0_3/avr/include/util/delay.h ****     rather than a number of cycles to wait for.  The idea behind is
  65:/opt/homebrew/Cellar/avr-gcc@9/9.3.0_3/avr/include/util/delay.h ****     that compile-time constant expressions will be eliminated by
  66:/opt/homebrew/Cellar/avr-gcc@9/9.3.0_3/avr/include/util/delay.h ****     compiler optimization so floating-point expressions can be used
  67:/opt/homebrew/Cellar/avr-gcc@9/9.3.0_3/avr/include/util/delay.h ****     to calculate the number of delay cycles needed based on the CPU
  68:/opt/homebrew/Cellar/avr-gcc@9/9.3.0_3/avr/include/util/delay.h ****     frequency passed by the macro F_CPU.
  69:/opt/homebrew/Cellar/avr-gcc@9/9.3.0_3/avr/include/util/delay.h **** 
  70:/opt/homebrew/Cellar/avr-gcc@9/9.3.0_3/avr/include/util/delay.h ****     \note In order for these functions to work as intended, compiler
  71:/opt/homebrew/Cellar/avr-gcc@9/9.3.0_3/avr/include/util/delay.h ****     optimizations <em>must</em> be enabled, and the delay time
  72:/opt/homebrew/Cellar/avr-gcc@9/9.3.0_3/avr/include/util/delay.h ****     <em>must</em> be an expression that is a known constant at
  73:/opt/homebrew/Cellar/avr-gcc@9/9.3.0_3/avr/include/util/delay.h ****     compile-time.  If these requirements are not met, the resulting
  74:/opt/homebrew/Cellar/avr-gcc@9/9.3.0_3/avr/include/util/delay.h ****     delay will be much longer (and basically unpredictable), and
  75:/opt/homebrew/Cellar/avr-gcc@9/9.3.0_3/avr/include/util/delay.h ****     applications that otherwise do not use floating-point calculations
  76:/opt/homebrew/Cellar/avr-gcc@9/9.3.0_3/avr/include/util/delay.h ****     will experience severe code bloat by the floating-point library
  77:/opt/homebrew/Cellar/avr-gcc@9/9.3.0_3/avr/include/util/delay.h ****     routines linked into the application.
  78:/opt/homebrew/Cellar/avr-gcc@9/9.3.0_3/avr/include/util/delay.h **** 
  79:/opt/homebrew/Cellar/avr-gcc@9/9.3.0_3/avr/include/util/delay.h ****     The functions available allow the specification of microsecond, and
  80:/opt/homebrew/Cellar/avr-gcc@9/9.3.0_3/avr/include/util/delay.h ****     millisecond delays directly, using the application-supplied macro
  81:/opt/homebrew/Cellar/avr-gcc@9/9.3.0_3/avr/include/util/delay.h ****     F_CPU as the CPU clock frequency (in Hertz).
  82:/opt/homebrew/Cellar/avr-gcc@9/9.3.0_3/avr/include/util/delay.h **** 
  83:/opt/homebrew/Cellar/avr-gcc@9/9.3.0_3/avr/include/util/delay.h **** */
  84:/opt/homebrew/Cellar/avr-gcc@9/9.3.0_3/avr/include/util/delay.h **** 
  85:/opt/homebrew/Cellar/avr-gcc@9/9.3.0_3/avr/include/util/delay.h **** #if !defined(__DOXYGEN__)
  86:/opt/homebrew/Cellar/avr-gcc@9/9.3.0_3/avr/include/util/delay.h **** static __inline__ void _delay_us(double __us) __attribute__((__always_inline__));
  87:/opt/homebrew/Cellar/avr-gcc@9/9.3.0_3/avr/include/util/delay.h **** static __inline__ void _delay_ms(double __ms) __attribute__((__always_inline__));
  88:/opt/homebrew/Cellar/avr-gcc@9/9.3.0_3/avr/include/util/delay.h **** #endif
  89:/opt/homebrew/Cellar/avr-gcc@9/9.3.0_3/avr/include/util/delay.h **** 
  90:/opt/homebrew/Cellar/avr-gcc@9/9.3.0_3/avr/include/util/delay.h **** #ifndef F_CPU
  91:/opt/homebrew/Cellar/avr-gcc@9/9.3.0_3/avr/include/util/delay.h **** /* prevent compiler error by supplying a default */
  92:/opt/homebrew/Cellar/avr-gcc@9/9.3.0_3/avr/include/util/delay.h **** # warning "F_CPU not defined for <util/delay.h>"
  93:/opt/homebrew/Cellar/avr-gcc@9/9.3.0_3/avr/include/util/delay.h **** /** \ingroup util_delay
  94:/opt/homebrew/Cellar/avr-gcc@9/9.3.0_3/avr/include/util/delay.h ****     \def F_CPU
  95:/opt/homebrew/Cellar/avr-gcc@9/9.3.0_3/avr/include/util/delay.h ****     \brief CPU frequency in Hz
  96:/opt/homebrew/Cellar/avr-gcc@9/9.3.0_3/avr/include/util/delay.h **** 
  97:/opt/homebrew/Cellar/avr-gcc@9/9.3.0_3/avr/include/util/delay.h ****     The macro F_CPU specifies the CPU frequency to be considered by
  98:/opt/homebrew/Cellar/avr-gcc@9/9.3.0_3/avr/include/util/delay.h ****     the delay macros.  This macro is normally supplied by the
  99:/opt/homebrew/Cellar/avr-gcc@9/9.3.0_3/avr/include/util/delay.h ****     environment (e.g. from within a project header, or the project's
 100:/opt/homebrew/Cellar/avr-gcc@9/9.3.0_3/avr/include/util/delay.h ****     Makefile).  The value 1 MHz here is only provided as a "vanilla"
 101:/opt/homebrew/Cellar/avr-gcc@9/9.3.0_3/avr/include/util/delay.h ****     fallback if no such user-provided definition could be found.
 102:/opt/homebrew/Cellar/avr-gcc@9/9.3.0_3/avr/include/util/delay.h **** 
 103:/opt/homebrew/Cellar/avr-gcc@9/9.3.0_3/avr/include/util/delay.h ****     In terms of the delay functions, the CPU frequency can be given as
 104:/opt/homebrew/Cellar/avr-gcc@9/9.3.0_3/avr/include/util/delay.h ****     a floating-point constant (e.g. 3.6864E6 for 3.6864 MHz).
 105:/opt/homebrew/Cellar/avr-gcc@9/9.3.0_3/avr/include/util/delay.h ****     However, the macros in <util/setbaud.h> require it to be an
 106:/opt/homebrew/Cellar/avr-gcc@9/9.3.0_3/avr/include/util/delay.h ****     integer value.
 107:/opt/homebrew/Cellar/avr-gcc@9/9.3.0_3/avr/include/util/delay.h ****  */
 108:/opt/homebrew/Cellar/avr-gcc@9/9.3.0_3/avr/include/util/delay.h **** # define F_CPU 1000000UL
 109:/opt/homebrew/Cellar/avr-gcc@9/9.3.0_3/avr/include/util/delay.h **** #endif
 110:/opt/homebrew/Cellar/avr-gcc@9/9.3.0_3/avr/include/util/delay.h **** 
 111:/opt/homebrew/Cellar/avr-gcc@9/9.3.0_3/avr/include/util/delay.h **** #ifndef __OPTIMIZE__
 112:/opt/homebrew/Cellar/avr-gcc@9/9.3.0_3/avr/include/util/delay.h **** # warning "Compiler optimizations disabled; functions from <util/delay.h> won't work as designed"
 113:/opt/homebrew/Cellar/avr-gcc@9/9.3.0_3/avr/include/util/delay.h **** #endif
 114:/opt/homebrew/Cellar/avr-gcc@9/9.3.0_3/avr/include/util/delay.h **** 
 115:/opt/homebrew/Cellar/avr-gcc@9/9.3.0_3/avr/include/util/delay.h **** #if __HAS_DELAY_CYCLES && defined(__OPTIMIZE__) && \
 116:/opt/homebrew/Cellar/avr-gcc@9/9.3.0_3/avr/include/util/delay.h ****   !defined(__DELAY_BACKWARD_COMPATIBLE__) &&	   \
 117:/opt/homebrew/Cellar/avr-gcc@9/9.3.0_3/avr/include/util/delay.h ****   __STDC_HOSTED__
 118:/opt/homebrew/Cellar/avr-gcc@9/9.3.0_3/avr/include/util/delay.h **** #  include <math.h>
 119:/opt/homebrew/Cellar/avr-gcc@9/9.3.0_3/avr/include/util/delay.h **** #endif
 120:/opt/homebrew/Cellar/avr-gcc@9/9.3.0_3/avr/include/util/delay.h **** 
 121:/opt/homebrew/Cellar/avr-gcc@9/9.3.0_3/avr/include/util/delay.h **** /**
 122:/opt/homebrew/Cellar/avr-gcc@9/9.3.0_3/avr/include/util/delay.h ****    \ingroup util_delay
 123:/opt/homebrew/Cellar/avr-gcc@9/9.3.0_3/avr/include/util/delay.h **** 
 124:/opt/homebrew/Cellar/avr-gcc@9/9.3.0_3/avr/include/util/delay.h ****    Perform a delay of \c __ms milliseconds, using _delay_loop_2().
 125:/opt/homebrew/Cellar/avr-gcc@9/9.3.0_3/avr/include/util/delay.h **** 
 126:/opt/homebrew/Cellar/avr-gcc@9/9.3.0_3/avr/include/util/delay.h ****    The macro F_CPU is supposed to be defined to a
 127:/opt/homebrew/Cellar/avr-gcc@9/9.3.0_3/avr/include/util/delay.h ****    constant defining the CPU clock frequency (in Hertz).
 128:/opt/homebrew/Cellar/avr-gcc@9/9.3.0_3/avr/include/util/delay.h **** 
 129:/opt/homebrew/Cellar/avr-gcc@9/9.3.0_3/avr/include/util/delay.h ****    The maximal possible delay is 262.14 ms / F_CPU in MHz.
 130:/opt/homebrew/Cellar/avr-gcc@9/9.3.0_3/avr/include/util/delay.h **** 
 131:/opt/homebrew/Cellar/avr-gcc@9/9.3.0_3/avr/include/util/delay.h ****    When the user request delay which exceed the maximum possible one,
 132:/opt/homebrew/Cellar/avr-gcc@9/9.3.0_3/avr/include/util/delay.h ****    _delay_ms() provides a decreased resolution functionality. In this
 133:/opt/homebrew/Cellar/avr-gcc@9/9.3.0_3/avr/include/util/delay.h ****    mode _delay_ms() will work with a resolution of 1/10 ms, providing
 134:/opt/homebrew/Cellar/avr-gcc@9/9.3.0_3/avr/include/util/delay.h ****    delays up to 6.5535 seconds (independent from CPU frequency).  The
 135:/opt/homebrew/Cellar/avr-gcc@9/9.3.0_3/avr/include/util/delay.h ****    user will not be informed about decreased resolution.
 136:/opt/homebrew/Cellar/avr-gcc@9/9.3.0_3/avr/include/util/delay.h **** 
 137:/opt/homebrew/Cellar/avr-gcc@9/9.3.0_3/avr/include/util/delay.h ****    If the avr-gcc toolchain has __builtin_avr_delay_cycles()
 138:/opt/homebrew/Cellar/avr-gcc@9/9.3.0_3/avr/include/util/delay.h ****    support, maximal possible delay is 4294967.295 ms/ F_CPU in MHz. For
 139:/opt/homebrew/Cellar/avr-gcc@9/9.3.0_3/avr/include/util/delay.h ****    values greater than the maximal possible delay, overflows results in
 140:/opt/homebrew/Cellar/avr-gcc@9/9.3.0_3/avr/include/util/delay.h ****    no delay i.e., 0ms.
 141:/opt/homebrew/Cellar/avr-gcc@9/9.3.0_3/avr/include/util/delay.h **** 
 142:/opt/homebrew/Cellar/avr-gcc@9/9.3.0_3/avr/include/util/delay.h ****    Conversion of \c __ms into clock cycles may not always result in
 143:/opt/homebrew/Cellar/avr-gcc@9/9.3.0_3/avr/include/util/delay.h ****    integer.  By default, the clock cycles rounded up to next
 144:/opt/homebrew/Cellar/avr-gcc@9/9.3.0_3/avr/include/util/delay.h ****    integer. This ensures that the user gets at least \c __ms
 145:/opt/homebrew/Cellar/avr-gcc@9/9.3.0_3/avr/include/util/delay.h ****    microseconds of delay.
 146:/opt/homebrew/Cellar/avr-gcc@9/9.3.0_3/avr/include/util/delay.h **** 
 147:/opt/homebrew/Cellar/avr-gcc@9/9.3.0_3/avr/include/util/delay.h ****    Alternatively, by defining the macro \c __DELAY_ROUND_DOWN__, or
 148:/opt/homebrew/Cellar/avr-gcc@9/9.3.0_3/avr/include/util/delay.h ****    \c __DELAY_ROUND_CLOSEST__, before including this header file, the
 149:/opt/homebrew/Cellar/avr-gcc@9/9.3.0_3/avr/include/util/delay.h ****    algorithm can be made to round down, or round to closest integer,
 150:/opt/homebrew/Cellar/avr-gcc@9/9.3.0_3/avr/include/util/delay.h ****    respectively.
 151:/opt/homebrew/Cellar/avr-gcc@9/9.3.0_3/avr/include/util/delay.h **** 
 152:/opt/homebrew/Cellar/avr-gcc@9/9.3.0_3/avr/include/util/delay.h ****    \note
 153:/opt/homebrew/Cellar/avr-gcc@9/9.3.0_3/avr/include/util/delay.h **** 
 154:/opt/homebrew/Cellar/avr-gcc@9/9.3.0_3/avr/include/util/delay.h ****    The implementation of _delay_ms() based on
 155:/opt/homebrew/Cellar/avr-gcc@9/9.3.0_3/avr/include/util/delay.h ****    __builtin_avr_delay_cycles() is not backward compatible with older
 156:/opt/homebrew/Cellar/avr-gcc@9/9.3.0_3/avr/include/util/delay.h ****    implementations.  In order to get functionality backward compatible
 157:/opt/homebrew/Cellar/avr-gcc@9/9.3.0_3/avr/include/util/delay.h ****    with previous versions, the macro \c "__DELAY_BACKWARD_COMPATIBLE__"
 158:/opt/homebrew/Cellar/avr-gcc@9/9.3.0_3/avr/include/util/delay.h ****    must be defined before including this header file. Also, the
 159:/opt/homebrew/Cellar/avr-gcc@9/9.3.0_3/avr/include/util/delay.h ****    backward compatible algorithm will be chosen if the code is
 160:/opt/homebrew/Cellar/avr-gcc@9/9.3.0_3/avr/include/util/delay.h ****    compiled in a <em>freestanding environment</em> (GCC option
 161:/opt/homebrew/Cellar/avr-gcc@9/9.3.0_3/avr/include/util/delay.h ****    \c -ffreestanding), as the math functions required for rounding are
 162:/opt/homebrew/Cellar/avr-gcc@9/9.3.0_3/avr/include/util/delay.h ****    not available to the compiler then.
 163:/opt/homebrew/Cellar/avr-gcc@9/9.3.0_3/avr/include/util/delay.h **** 
 164:/opt/homebrew/Cellar/avr-gcc@9/9.3.0_3/avr/include/util/delay.h ****  */
 165:/opt/homebrew/Cellar/avr-gcc@9/9.3.0_3/avr/include/util/delay.h **** void
 166:/opt/homebrew/Cellar/avr-gcc@9/9.3.0_3/avr/include/util/delay.h **** _delay_ms(double __ms)
 167:/opt/homebrew/Cellar/avr-gcc@9/9.3.0_3/avr/include/util/delay.h **** {
 168:/opt/homebrew/Cellar/avr-gcc@9/9.3.0_3/avr/include/util/delay.h **** 	double __tmp ;
 169:/opt/homebrew/Cellar/avr-gcc@9/9.3.0_3/avr/include/util/delay.h **** #if __HAS_DELAY_CYCLES && defined(__OPTIMIZE__) && \
 170:/opt/homebrew/Cellar/avr-gcc@9/9.3.0_3/avr/include/util/delay.h ****   !defined(__DELAY_BACKWARD_COMPATIBLE__) &&	   \
 171:/opt/homebrew/Cellar/avr-gcc@9/9.3.0_3/avr/include/util/delay.h ****   __STDC_HOSTED__
 172:/opt/homebrew/Cellar/avr-gcc@9/9.3.0_3/avr/include/util/delay.h **** 	uint32_t __ticks_dc;
 173:/opt/homebrew/Cellar/avr-gcc@9/9.3.0_3/avr/include/util/delay.h **** 	extern void __builtin_avr_delay_cycles(unsigned long);
 174:/opt/homebrew/Cellar/avr-gcc@9/9.3.0_3/avr/include/util/delay.h **** 	__tmp = ((F_CPU) / 1e3) * __ms;
 175:/opt/homebrew/Cellar/avr-gcc@9/9.3.0_3/avr/include/util/delay.h **** 
 176:/opt/homebrew/Cellar/avr-gcc@9/9.3.0_3/avr/include/util/delay.h **** 	#if defined(__DELAY_ROUND_DOWN__)
 177:/opt/homebrew/Cellar/avr-gcc@9/9.3.0_3/avr/include/util/delay.h **** 		__ticks_dc = (uint32_t)fabs(__tmp);
 178:/opt/homebrew/Cellar/avr-gcc@9/9.3.0_3/avr/include/util/delay.h **** 
 179:/opt/homebrew/Cellar/avr-gcc@9/9.3.0_3/avr/include/util/delay.h **** 	#elif defined(__DELAY_ROUND_CLOSEST__)
 180:/opt/homebrew/Cellar/avr-gcc@9/9.3.0_3/avr/include/util/delay.h **** 		__ticks_dc = (uint32_t)(fabs(__tmp)+0.5);
 181:/opt/homebrew/Cellar/avr-gcc@9/9.3.0_3/avr/include/util/delay.h **** 
 182:/opt/homebrew/Cellar/avr-gcc@9/9.3.0_3/avr/include/util/delay.h **** 	#else
 183:/opt/homebrew/Cellar/avr-gcc@9/9.3.0_3/avr/include/util/delay.h **** 		//round up by default
 184:/opt/homebrew/Cellar/avr-gcc@9/9.3.0_3/avr/include/util/delay.h **** 		__ticks_dc = (uint32_t)(ceil(fabs(__tmp)));
 185:/opt/homebrew/Cellar/avr-gcc@9/9.3.0_3/avr/include/util/delay.h **** 	#endif
 186:/opt/homebrew/Cellar/avr-gcc@9/9.3.0_3/avr/include/util/delay.h **** 
 187:/opt/homebrew/Cellar/avr-gcc@9/9.3.0_3/avr/include/util/delay.h **** 	__builtin_avr_delay_cycles(__ticks_dc);
 188:/opt/homebrew/Cellar/avr-gcc@9/9.3.0_3/avr/include/util/delay.h **** 
 189:/opt/homebrew/Cellar/avr-gcc@9/9.3.0_3/avr/include/util/delay.h **** #else
 190:/opt/homebrew/Cellar/avr-gcc@9/9.3.0_3/avr/include/util/delay.h **** 	uint16_t __ticks;
 191:/opt/homebrew/Cellar/avr-gcc@9/9.3.0_3/avr/include/util/delay.h **** 	__tmp = ((F_CPU) / 4e3) * __ms;
 192:/opt/homebrew/Cellar/avr-gcc@9/9.3.0_3/avr/include/util/delay.h **** 	if (__tmp < 1.0)
 193:/opt/homebrew/Cellar/avr-gcc@9/9.3.0_3/avr/include/util/delay.h **** 		__ticks = 1;
 194:/opt/homebrew/Cellar/avr-gcc@9/9.3.0_3/avr/include/util/delay.h **** 	else if (__tmp > 65535)
 195:/opt/homebrew/Cellar/avr-gcc@9/9.3.0_3/avr/include/util/delay.h **** 	{
 196:/opt/homebrew/Cellar/avr-gcc@9/9.3.0_3/avr/include/util/delay.h **** 		//	__ticks = requested delay in 1/10 ms
 197:/opt/homebrew/Cellar/avr-gcc@9/9.3.0_3/avr/include/util/delay.h **** 		__ticks = (uint16_t) (__ms * 10.0);
 198:/opt/homebrew/Cellar/avr-gcc@9/9.3.0_3/avr/include/util/delay.h **** 		while(__ticks)
 199:/opt/homebrew/Cellar/avr-gcc@9/9.3.0_3/avr/include/util/delay.h **** 		{
 200:/opt/homebrew/Cellar/avr-gcc@9/9.3.0_3/avr/include/util/delay.h **** 			// wait 1/10 ms
 201:/opt/homebrew/Cellar/avr-gcc@9/9.3.0_3/avr/include/util/delay.h **** 			_delay_loop_2(((F_CPU) / 4e3) / 10);
 202:/opt/homebrew/Cellar/avr-gcc@9/9.3.0_3/avr/include/util/delay.h **** 			__ticks --;
 203:/opt/homebrew/Cellar/avr-gcc@9/9.3.0_3/avr/include/util/delay.h **** 		}
 204:/opt/homebrew/Cellar/avr-gcc@9/9.3.0_3/avr/include/util/delay.h **** 		return;
 205:/opt/homebrew/Cellar/avr-gcc@9/9.3.0_3/avr/include/util/delay.h **** 	}
 206:/opt/homebrew/Cellar/avr-gcc@9/9.3.0_3/avr/include/util/delay.h **** 	else
 207:/opt/homebrew/Cellar/avr-gcc@9/9.3.0_3/avr/include/util/delay.h **** 		__ticks = (uint16_t)__tmp;
 208:/opt/homebrew/Cellar/avr-gcc@9/9.3.0_3/avr/include/util/delay.h **** 	_delay_loop_2(__ticks);
 209:/opt/homebrew/Cellar/avr-gcc@9/9.3.0_3/avr/include/util/delay.h **** #endif
 210:/opt/homebrew/Cellar/avr-gcc@9/9.3.0_3/avr/include/util/delay.h **** }
 211:/opt/homebrew/Cellar/avr-gcc@9/9.3.0_3/avr/include/util/delay.h **** 
 212:/opt/homebrew/Cellar/avr-gcc@9/9.3.0_3/avr/include/util/delay.h **** /**
 213:/opt/homebrew/Cellar/avr-gcc@9/9.3.0_3/avr/include/util/delay.h ****    \ingroup util_delay
 214:/opt/homebrew/Cellar/avr-gcc@9/9.3.0_3/avr/include/util/delay.h **** 
 215:/opt/homebrew/Cellar/avr-gcc@9/9.3.0_3/avr/include/util/delay.h ****    Perform a delay of \c __us microseconds, using _delay_loop_1().
 216:/opt/homebrew/Cellar/avr-gcc@9/9.3.0_3/avr/include/util/delay.h **** 
 217:/opt/homebrew/Cellar/avr-gcc@9/9.3.0_3/avr/include/util/delay.h ****    The macro F_CPU is supposed to be defined to a
 218:/opt/homebrew/Cellar/avr-gcc@9/9.3.0_3/avr/include/util/delay.h ****    constant defining the CPU clock frequency (in Hertz).
 219:/opt/homebrew/Cellar/avr-gcc@9/9.3.0_3/avr/include/util/delay.h **** 
 220:/opt/homebrew/Cellar/avr-gcc@9/9.3.0_3/avr/include/util/delay.h ****    The maximal possible delay is 768 us / F_CPU in MHz.
 221:/opt/homebrew/Cellar/avr-gcc@9/9.3.0_3/avr/include/util/delay.h **** 
 222:/opt/homebrew/Cellar/avr-gcc@9/9.3.0_3/avr/include/util/delay.h ****    If the user requests a delay greater than the maximal possible one,
 223:/opt/homebrew/Cellar/avr-gcc@9/9.3.0_3/avr/include/util/delay.h ****    _delay_us() will automatically call _delay_ms() instead.  The user
 224:/opt/homebrew/Cellar/avr-gcc@9/9.3.0_3/avr/include/util/delay.h ****    will not be informed about this case.
 225:/opt/homebrew/Cellar/avr-gcc@9/9.3.0_3/avr/include/util/delay.h **** 
 226:/opt/homebrew/Cellar/avr-gcc@9/9.3.0_3/avr/include/util/delay.h ****    If the avr-gcc toolchain has __builtin_avr_delay_cycles()
 227:/opt/homebrew/Cellar/avr-gcc@9/9.3.0_3/avr/include/util/delay.h ****    support, maximal possible delay is 4294967.295 us/ F_CPU in MHz. For
 228:/opt/homebrew/Cellar/avr-gcc@9/9.3.0_3/avr/include/util/delay.h ****    values greater than the maximal possible delay, overflow results in
 229:/opt/homebrew/Cellar/avr-gcc@9/9.3.0_3/avr/include/util/delay.h ****    no delay i.e., 0us.
 230:/opt/homebrew/Cellar/avr-gcc@9/9.3.0_3/avr/include/util/delay.h **** 
 231:/opt/homebrew/Cellar/avr-gcc@9/9.3.0_3/avr/include/util/delay.h ****    Conversion of \c __us into clock cycles may not always result in
 232:/opt/homebrew/Cellar/avr-gcc@9/9.3.0_3/avr/include/util/delay.h ****    integer.  By default, the clock cycles rounded up to next
 233:/opt/homebrew/Cellar/avr-gcc@9/9.3.0_3/avr/include/util/delay.h ****    integer. This ensures that the user gets at least \c __us
 234:/opt/homebrew/Cellar/avr-gcc@9/9.3.0_3/avr/include/util/delay.h ****    microseconds of delay.
 235:/opt/homebrew/Cellar/avr-gcc@9/9.3.0_3/avr/include/util/delay.h **** 
 236:/opt/homebrew/Cellar/avr-gcc@9/9.3.0_3/avr/include/util/delay.h ****    Alternatively, by defining the macro \c __DELAY_ROUND_DOWN__, or
 237:/opt/homebrew/Cellar/avr-gcc@9/9.3.0_3/avr/include/util/delay.h ****    \c __DELAY_ROUND_CLOSEST__, before including this header file, the
 238:/opt/homebrew/Cellar/avr-gcc@9/9.3.0_3/avr/include/util/delay.h ****    algorithm can be made to round down, or round to closest integer,
 239:/opt/homebrew/Cellar/avr-gcc@9/9.3.0_3/avr/include/util/delay.h ****    respectively.
 240:/opt/homebrew/Cellar/avr-gcc@9/9.3.0_3/avr/include/util/delay.h **** 
 241:/opt/homebrew/Cellar/avr-gcc@9/9.3.0_3/avr/include/util/delay.h ****    \note
 242:/opt/homebrew/Cellar/avr-gcc@9/9.3.0_3/avr/include/util/delay.h **** 
 243:/opt/homebrew/Cellar/avr-gcc@9/9.3.0_3/avr/include/util/delay.h ****    The implementation of _delay_ms() based on
 244:/opt/homebrew/Cellar/avr-gcc@9/9.3.0_3/avr/include/util/delay.h ****    __builtin_avr_delay_cycles() is not backward compatible with older
 245:/opt/homebrew/Cellar/avr-gcc@9/9.3.0_3/avr/include/util/delay.h ****    implementations.  In order to get functionality backward compatible
 246:/opt/homebrew/Cellar/avr-gcc@9/9.3.0_3/avr/include/util/delay.h ****    with previous versions, the macro \c __DELAY_BACKWARD_COMPATIBLE__
 247:/opt/homebrew/Cellar/avr-gcc@9/9.3.0_3/avr/include/util/delay.h ****    must be defined before including this header file. Also, the
 248:/opt/homebrew/Cellar/avr-gcc@9/9.3.0_3/avr/include/util/delay.h ****    backward compatible algorithm will be chosen if the code is
 249:/opt/homebrew/Cellar/avr-gcc@9/9.3.0_3/avr/include/util/delay.h ****    compiled in a <em>freestanding environment</em> (GCC option
 250:/opt/homebrew/Cellar/avr-gcc@9/9.3.0_3/avr/include/util/delay.h ****    \c -ffreestanding), as the math functions required for rounding are
 251:/opt/homebrew/Cellar/avr-gcc@9/9.3.0_3/avr/include/util/delay.h ****    not available to the compiler then.
 252:/opt/homebrew/Cellar/avr-gcc@9/9.3.0_3/avr/include/util/delay.h **** 
 253:/opt/homebrew/Cellar/avr-gcc@9/9.3.0_3/avr/include/util/delay.h ****  */
 254:/opt/homebrew/Cellar/avr-gcc@9/9.3.0_3/avr/include/util/delay.h **** void
 255:/opt/homebrew/Cellar/avr-gcc@9/9.3.0_3/avr/include/util/delay.h **** _delay_us(double __us)
 137               		.loc 3 255 1 view .LVU32
 138               	.LBB13:
 256:/opt/homebrew/Cellar/avr-gcc@9/9.3.0_3/avr/include/util/delay.h **** {
 257:/opt/homebrew/Cellar/avr-gcc@9/9.3.0_3/avr/include/util/delay.h **** 	double __tmp ;
 139               		.loc 3 257 2 view .LVU33
 258:/opt/homebrew/Cellar/avr-gcc@9/9.3.0_3/avr/include/util/delay.h **** #if __HAS_DELAY_CYCLES && defined(__OPTIMIZE__) && \
 259:/opt/homebrew/Cellar/avr-gcc@9/9.3.0_3/avr/include/util/delay.h ****   !defined(__DELAY_BACKWARD_COMPATIBLE__) &&	   \
 260:/opt/homebrew/Cellar/avr-gcc@9/9.3.0_3/avr/include/util/delay.h ****   __STDC_HOSTED__
 261:/opt/homebrew/Cellar/avr-gcc@9/9.3.0_3/avr/include/util/delay.h **** 	uint32_t __ticks_dc;
 140               		.loc 3 261 2 view .LVU34
 262:/opt/homebrew/Cellar/avr-gcc@9/9.3.0_3/avr/include/util/delay.h **** 	extern void __builtin_avr_delay_cycles(unsigned long);
 141               		.loc 3 262 2 view .LVU35
 263:/opt/homebrew/Cellar/avr-gcc@9/9.3.0_3/avr/include/util/delay.h **** 	__tmp = ((F_CPU) / 1e6) * __us;
 142               		.loc 3 263 2 view .LVU36
 264:/opt/homebrew/Cellar/avr-gcc@9/9.3.0_3/avr/include/util/delay.h **** 
 265:/opt/homebrew/Cellar/avr-gcc@9/9.3.0_3/avr/include/util/delay.h **** 	#if defined(__DELAY_ROUND_DOWN__)
 266:/opt/homebrew/Cellar/avr-gcc@9/9.3.0_3/avr/include/util/delay.h **** 		__ticks_dc = (uint32_t)fabs(__tmp);
 267:/opt/homebrew/Cellar/avr-gcc@9/9.3.0_3/avr/include/util/delay.h **** 
 268:/opt/homebrew/Cellar/avr-gcc@9/9.3.0_3/avr/include/util/delay.h **** 	#elif defined(__DELAY_ROUND_CLOSEST__)
 269:/opt/homebrew/Cellar/avr-gcc@9/9.3.0_3/avr/include/util/delay.h **** 		__ticks_dc = (uint32_t)(fabs(__tmp)+0.5);
 270:/opt/homebrew/Cellar/avr-gcc@9/9.3.0_3/avr/include/util/delay.h **** 
 271:/opt/homebrew/Cellar/avr-gcc@9/9.3.0_3/avr/include/util/delay.h **** 	#else
 272:/opt/homebrew/Cellar/avr-gcc@9/9.3.0_3/avr/include/util/delay.h **** 		//round up by default
 273:/opt/homebrew/Cellar/avr-gcc@9/9.3.0_3/avr/include/util/delay.h **** 		__ticks_dc = (uint32_t)(ceil(fabs(__tmp)));
 143               		.loc 3 273 3 view .LVU37
 274:/opt/homebrew/Cellar/avr-gcc@9/9.3.0_3/avr/include/util/delay.h **** 	#endif
 275:/opt/homebrew/Cellar/avr-gcc@9/9.3.0_3/avr/include/util/delay.h **** 
 276:/opt/homebrew/Cellar/avr-gcc@9/9.3.0_3/avr/include/util/delay.h **** 	__builtin_avr_delay_cycles(__ticks_dc);
 144               		.loc 3 276 2 view .LVU38
 145 005e 85E0      		ldi r24,lo8(5)
 146 0060 8A95      	1:	dec r24
 147 0062 01F4      		brne 1b
 148 0064 0000      		nop
 149               	.LVL16:
 150               	.L6:
 151               		.loc 3 276 2 is_stmt 0 view .LVU39
 152               	.LBE13:
 153               	.LBE12:
 110:mcp2515_set_dyn_filter.c **** 	}
 111:mcp2515_set_dyn_filter.c **** 	
 112:mcp2515_set_dyn_filter.c **** 	// write filter
 113:mcp2515_set_dyn_filter.c **** 	uint8_t filter_address;
 154               		.loc 1 113 2 is_stmt 1 view .LVU40
 114:mcp2515_set_dyn_filter.c **** 	if (number >= 3) {
 155               		.loc 1 114 2 view .LVU41
 156               		.loc 1 114 5 is_stmt 0 view .LVU42
 157 0066 C330      		cpi r28,lo8(3)
 158 0068 00F0      		brlo .L7
 115:mcp2515_set_dyn_filter.c **** 		number -= 3;
 159               		.loc 1 115 3 is_stmt 1 view .LVU43
 160               		.loc 1 115 10 is_stmt 0 view .LVU44
 161 006a C350      		subi r28,lo8(-(-3))
 162               	.LVL17:
 116:mcp2515_set_dyn_filter.c **** 		filter_address = RXF3SIDH;
 163               		.loc 1 116 3 is_stmt 1 view .LVU45
 164               		.loc 1 116 18 is_stmt 0 view .LVU46
 165 006c D0E1      		ldi r29,lo8(16)
 166               	.LVL18:
 167               	.L7:
 117:mcp2515_set_dyn_filter.c **** 	}
 118:mcp2515_set_dyn_filter.c **** 	else {
 119:mcp2515_set_dyn_filter.c **** 		filter_address = RXF0SIDH;
 120:mcp2515_set_dyn_filter.c **** 	}
 121:mcp2515_set_dyn_filter.c **** 	
 122:mcp2515_set_dyn_filter.c **** 	RESET(MCP2515_CS);
 168               		.loc 1 122 2 is_stmt 1 view .LVU47
 169 006e C098      		cbi 0x18,0
 123:mcp2515_set_dyn_filter.c **** 	spi_putc(SPI_WRITE);
 170               		.loc 1 123 2 view .LVU48
 171 0070 82E0      		ldi r24,lo8(2)
 172 0072 0E94 0000 		call spi_putc
 173               	.LVL19:
 124:mcp2515_set_dyn_filter.c **** 	spi_putc(filter_address | (number * 4));
 174               		.loc 1 124 2 view .LVU49
 175               		.loc 1 124 26 is_stmt 0 view .LVU50
 176 0076 8C2F      		mov r24,r28
 177 0078 880F      		lsl r24
 178 007a 880F      		lsl r24
 179               		.loc 1 124 2 view .LVU51
 180 007c 8D2B      		or r24,r29
 181 007e 0E94 0000 		call spi_putc
 182               	.LVL20:
 125:mcp2515_set_dyn_filter.c **** 	#if SUPPORT_EXTENDED_CANID
 126:mcp2515_set_dyn_filter.c **** 		mcp2515_write_id(&filter->id, (filter->flags.extended == 0x2) ? 0 : 1);
 127:mcp2515_set_dyn_filter.c **** 	#else
 128:mcp2515_set_dyn_filter.c **** 		mcp2515_write_id(&filter->id);
 183               		.loc 1 128 3 is_stmt 1 view .LVU52
 184 0082 C701      		movw r24,r14
 185 0084 0E94 0000 		call mcp2515_write_id
 186               	.LVL21:
 129:mcp2515_set_dyn_filter.c **** 	#endif
 130:mcp2515_set_dyn_filter.c **** 	SET(MCP2515_CS);
 187               		.loc 1 130 2 view .LVU53
 188 0088 C09A      		sbi 0x18,0
 131:mcp2515_set_dyn_filter.c **** 	
 132:mcp2515_set_dyn_filter.c **** 	_delay_us(1);
 189               		.loc 1 132 2 view .LVU54
 190               	.LVL22:
 191               	.LBB14:
 192               	.LBI14:
 255:/opt/homebrew/Cellar/avr-gcc@9/9.3.0_3/avr/include/util/delay.h **** {
 193               		.loc 3 255 1 view .LVU55
 194               	.LBB15:
 257:/opt/homebrew/Cellar/avr-gcc@9/9.3.0_3/avr/include/util/delay.h **** #if __HAS_DELAY_CYCLES && defined(__OPTIMIZE__) && \
 195               		.loc 3 257 2 view .LVU56
 261:/opt/homebrew/Cellar/avr-gcc@9/9.3.0_3/avr/include/util/delay.h **** 	extern void __builtin_avr_delay_cycles(unsigned long);
 196               		.loc 3 261 2 view .LVU57
 262:/opt/homebrew/Cellar/avr-gcc@9/9.3.0_3/avr/include/util/delay.h **** 	__tmp = ((F_CPU) / 1e6) * __us;
 197               		.loc 3 262 2 view .LVU58
 263:/opt/homebrew/Cellar/avr-gcc@9/9.3.0_3/avr/include/util/delay.h **** 
 198               		.loc 3 263 2 view .LVU59
 273:/opt/homebrew/Cellar/avr-gcc@9/9.3.0_3/avr/include/util/delay.h **** 	#endif
 199               		.loc 3 273 3 view .LVU60
 200               		.loc 3 276 2 view .LVU61
 201 008a 85E0      		ldi r24,lo8(5)
 202 008c 8A95      	1:	dec r24
 203 008e 01F4      		brne 1b
 204 0090 0000      		nop
 205               	.LVL23:
 206               		.loc 3 276 2 is_stmt 0 view .LVU62
 207               	.LBE15:
 208               	.LBE14:
 133:mcp2515_set_dyn_filter.c **** 	
 134:mcp2515_set_dyn_filter.c **** 	// restore previous mode
 135:mcp2515_set_dyn_filter.c **** 	mcp2515_change_operation_mode( mode );
 209               		.loc 1 135 2 is_stmt 1 view .LVU63
 210               	.LBB16:
 211               	.LBI16:
 148:mcp2515_private.h **** {
 212               		.loc 2 148 49 view .LVU64
 213               	.LBB17:
 150:mcp2515_private.h **** 	while ((mcp2515_read_register(CANSTAT) & 0xe0) != (mode & 0xe0))
 214               		.loc 2 150 2 view .LVU65
 215 0092 412F      		mov r20,r17
 216 0094 60EE      		ldi r22,lo8(-32)
 217 0096 8FE0      		ldi r24,lo8(15)
 218 0098 0E94 0000 		call mcp2515_bit_modify
 219               	.LVL24:
 151:mcp2515_private.h **** 		;
 220               		.loc 2 151 2 view .LVU66
 221               	.L8:
 222               		.loc 2 152 3 view .LVU67
 151:mcp2515_private.h **** 		;
 223               		.loc 2 151 8 view .LVU68
 151:mcp2515_private.h **** 		;
 224               		.loc 2 151 10 is_stmt 0 view .LVU69
 225 009c 8EE0      		ldi r24,lo8(14)
 226 009e 0E94 0000 		call mcp2515_read_register
 227               	.LVL25:
 151:mcp2515_private.h **** 		;
 228               		.loc 2 151 49 view .LVU70
 229 00a2 912F      		mov r25,r17
 230 00a4 9827      		eor r25,r24
 151:mcp2515_private.h **** 		;
 231               		.loc 2 151 8 view .LVU71
 232 00a6 907E      		andi r25,lo8(-32)
 233 00a8 01F4      		brne .L8
 234               	.LBE17:
 235               	.LBE16:
 136:mcp2515_set_dyn_filter.c **** 	
 137:mcp2515_set_dyn_filter.c **** 	return true;
 236               		.loc 1 137 9 view .LVU72
 237 00aa 81E0      		ldi r24,lo8(1)
 238               	.LVL26:
 239               	.L1:
 240               	/* epilogue start */
 138:mcp2515_set_dyn_filter.c **** }
 241               		.loc 1 138 1 view .LVU73
 242 00ac DF91      		pop r29
 243 00ae CF91      		pop r28
 244               	.LVL27:
 245               		.loc 1 138 1 view .LVU74
 246 00b0 1F91      		pop r17
 247               	.LVL28:
 248               		.loc 1 138 1 view .LVU75
 249 00b2 0F91      		pop r16
 250 00b4 FF90      		pop r15
 251 00b6 EF90      		pop r14
 252               	.LVL29:
 253               		.loc 1 138 1 view .LVU76
 254 00b8 0895      		ret
 255               	.LVL30:
 256               	.L4:
  74:mcp2515_set_dyn_filter.c **** 	{
 257               		.loc 1 74 7 is_stmt 1 view .LVU77
  74:mcp2515_set_dyn_filter.c **** 	{
 258               		.loc 1 74 10 is_stmt 0 view .LVU78
 259 00ba C230      		cpi r28,lo8(2)
 260 00bc 01F4      		brne .L6
  76:mcp2515_set_dyn_filter.c **** 		
 261               		.loc 1 76 3 is_stmt 1 view .LVU79
 262               	.LVL31:
  93:mcp2515_set_dyn_filter.c **** 		#endif
 263               		.loc 1 93 4 view .LVU80
 264 00be 60E2      		ldi r22,lo8(32)
 265 00c0 80E7      		ldi r24,lo8(112)
 266 00c2 0E94 0000 		call mcp2515_write_register
 267               	.LVL32:
  97:mcp2515_set_dyn_filter.c **** 	{
 268               		.loc 1 97 2 view .LVU81
  76:mcp2515_set_dyn_filter.c **** 		
 269               		.loc 1 76 16 is_stmt 0 view .LVU82
 270 00c6 04E2      		ldi r16,lo8(36)
 271 00c8 00C0      		rjmp .L5
 272               		.cfi_endproc
 273               	.LFE19:
 275               	.Letext0:
 276               		.file 4 "/opt/homebrew/Cellar/avr-gcc@9/9.3.0_3/avr/include/stdint.h"
 277               		.file 5 "../can.h"
 278               		.file 6 "spi.h"