   1               		.file	"mcp2515_read_id.c"
   2               	__SP_H__ = 0x3e
   3               	__SP_L__ = 0x3d
   4               	__SREG__ = 0x3f
   5               	__tmp_reg__ = 0
   6               	__zero_reg__ = 1
   7               		.text
   8               	.Ltext0:
   9               		.cfi_sections	.debug_frame
  10               	.global	mcp2515_read_id
  12               	mcp2515_read_id:
  13               	.LVL0:
  14               	.LFB19:
  15               		.file 1 "mcp2515_read_id.c"
   1:mcp2515_read_id.c **** // ----------------------------------------------------------------------------
   2:mcp2515_read_id.c **** /*
   3:mcp2515_read_id.c ****  * Copyright (c) 2007 Fabian Greif, Roboterclub Aachen e.V.
   4:mcp2515_read_id.c ****  *  All rights reserved.
   5:mcp2515_read_id.c ****  *
   6:mcp2515_read_id.c ****  * Redistribution and use in source and binary forms, with or without
   7:mcp2515_read_id.c ****  * modification, are permitted provided that the following conditions
   8:mcp2515_read_id.c ****  * are met:
   9:mcp2515_read_id.c ****  * 1. Redistributions of source code must retain the above copyright
  10:mcp2515_read_id.c ****  *    notice, this list of conditions and the following disclaimer.
  11:mcp2515_read_id.c ****  * 2. Redistributions in binary form must reproduce the above copyright
  12:mcp2515_read_id.c ****  *    notice, this list of conditions and the following disclaimer in the
  13:mcp2515_read_id.c ****  *    documentation and/or other materials provided with the distribution.
  14:mcp2515_read_id.c ****  *
  15:mcp2515_read_id.c ****  * THIS SOFTWARE IS PROVIDED BY THE AUTHOR AND CONTRIBUTORS ``AS IS'' AND
  16:mcp2515_read_id.c ****  * ANY EXPRESS OR IMPLIED WARRANTIES, INCLUDING, BUT NOT LIMITED TO, THE
  17:mcp2515_read_id.c ****  * IMPLIED WARRANTIES OF MERCHANTABILITY AND FITNESS FOR A PARTICULAR PURPOSE
  18:mcp2515_read_id.c ****  * ARE DISCLAIMED.  IN NO EVENT SHALL THE REGENTS OR CONTRIBUTORS BE LIABLE
  19:mcp2515_read_id.c ****  * FOR ANY DIRECT, INDIRECT, INCIDENTAL, SPECIAL, EXEMPLARY, OR CONSEQUENTIAL
  20:mcp2515_read_id.c ****  * DAMAGES (INCLUDING, BUT NOT LIMITED TO, PROCUREMENT OF SUBSTITUTE GOODS
  21:mcp2515_read_id.c ****  * OR SERVICES; LOSS OF USE, DATA, OR PROFITS; OR BUSINESS INTERRUPTION)
  22:mcp2515_read_id.c ****  * HOWEVER CAUSED AND ON ANY THEORY OF LIABILITY, WHETHER IN CONTRACT, STRICT
  23:mcp2515_read_id.c ****  * LIABILITY, OR TORT (INCLUDING NEGLIGENCE OR OTHERWISE) ARISING IN ANY WAY
  24:mcp2515_read_id.c ****  * OUT OF THE USE OF THIS SOFTWARE, EVEN IF ADVISED OF THE POSSIBILITY OF
  25:mcp2515_read_id.c ****  * SUCH DAMAGE.
  26:mcp2515_read_id.c ****  *
  27:mcp2515_read_id.c ****  * $Id: mcp2515_read_id.c 7224 2009-01-25 20:19:32Z fabian $
  28:mcp2515_read_id.c ****  */
  29:mcp2515_read_id.c **** // ----------------------------------------------------------------------------
  30:mcp2515_read_id.c **** 
  31:mcp2515_read_id.c **** #include "mcp2515_private.h"
  32:mcp2515_read_id.c **** #ifdef	SUPPORT_FOR_MCP2515__
  33:mcp2515_read_id.c **** 
  34:mcp2515_read_id.c **** // ----------------------------------------------------------------------------
  35:mcp2515_read_id.c **** // Liest eine ID aus dem Registern des MCP2515 (siehe auch mcp2515_write_id())
  36:mcp2515_read_id.c **** 
  37:mcp2515_read_id.c **** #if	SUPPORT_EXTENDED_CANID
  38:mcp2515_read_id.c **** 
  39:mcp2515_read_id.c **** uint8_t mcp2515_read_id(uint32_t *id)
  40:mcp2515_read_id.c **** {
  41:mcp2515_read_id.c **** 	uint8_t first;
  42:mcp2515_read_id.c **** 	uint8_t tmp;
  43:mcp2515_read_id.c **** 	
  44:mcp2515_read_id.c **** 	first = spi_putc(0xff);
  45:mcp2515_read_id.c **** 	tmp   = spi_putc(0xff);
  46:mcp2515_read_id.c **** 	
  47:mcp2515_read_id.c **** 	if (tmp & (1 << IDE)) {
  48:mcp2515_read_id.c **** 		spi_start(0xff);
  49:mcp2515_read_id.c **** 		
  50:mcp2515_read_id.c **** 		*((uint16_t *) id + 1)  = (uint16_t) first << 5;
  51:mcp2515_read_id.c **** 		*((uint8_t *)  id + 1)  = spi_wait();
  52:mcp2515_read_id.c **** 		spi_start(0xff);
  53:mcp2515_read_id.c **** 		
  54:mcp2515_read_id.c **** 		*((uint8_t *)  id + 2) |= (tmp >> 3) & 0x1C;
  55:mcp2515_read_id.c **** 		*((uint8_t *)  id + 2) |=  tmp & 0x03;
  56:mcp2515_read_id.c **** 		
  57:mcp2515_read_id.c **** 		*((uint8_t *)  id)      = spi_wait();
  58:mcp2515_read_id.c **** 		
  59:mcp2515_read_id.c **** 		return TRUE;
  60:mcp2515_read_id.c **** 	}
  61:mcp2515_read_id.c **** 	else {
  62:mcp2515_read_id.c **** 		spi_start(0xff);
  63:mcp2515_read_id.c **** 		
  64:mcp2515_read_id.c **** 		*((uint8_t *)  id + 3) = 0;
  65:mcp2515_read_id.c **** 		*((uint8_t *)  id + 2) = 0;
  66:mcp2515_read_id.c **** 		
  67:mcp2515_read_id.c **** 		*((uint16_t *) id) = (uint16_t) first << 3;
  68:mcp2515_read_id.c **** 		
  69:mcp2515_read_id.c **** 		spi_wait();
  70:mcp2515_read_id.c **** 		spi_start(0xff);
  71:mcp2515_read_id.c **** 		
  72:mcp2515_read_id.c **** 		*((uint8_t *) id) |= tmp >> 5;
  73:mcp2515_read_id.c **** 		
  74:mcp2515_read_id.c **** 		spi_wait();
  75:mcp2515_read_id.c **** 		
  76:mcp2515_read_id.c **** 		return FALSE;
  77:mcp2515_read_id.c **** 	}
  78:mcp2515_read_id.c **** }
  79:mcp2515_read_id.c **** 
  80:mcp2515_read_id.c **** #else
  81:mcp2515_read_id.c **** 
  82:mcp2515_read_id.c **** uint8_t mcp2515_read_id(uint16_t *id)
  83:mcp2515_read_id.c **** {
  16               		.loc 1 83 1 view -0
  17               		.cfi_startproc
  18               		.loc 1 83 1 is_stmt 0 view .LVU1
  19 0000 1F93      		push r17
  20               	.LCFI0:
  21               		.cfi_def_cfa_offset 3
  22               		.cfi_offset 17, -2
  23 0002 CF93      		push r28
  24               	.LCFI1:
  25               		.cfi_def_cfa_offset 4
  26               		.cfi_offset 28, -3
  27 0004 DF93      		push r29
  28               	.LCFI2:
  29               		.cfi_def_cfa_offset 5
  30               		.cfi_offset 29, -4
  31               	/* prologue: function */
  32               	/* frame size = 0 */
  33               	/* stack size = 3 */
  34               	.L__stack_usage = 3
  35 0006 EC01      		movw r28,r24
  84:mcp2515_read_id.c **** 	uint8_t first;
  36               		.loc 1 84 2 is_stmt 1 view .LVU2
  85:mcp2515_read_id.c **** 	uint8_t tmp;
  37               		.loc 1 85 2 view .LVU3
  86:mcp2515_read_id.c **** 	
  87:mcp2515_read_id.c **** 	first = spi_putc(0xff);
  38               		.loc 1 87 2 view .LVU4
  39               		.loc 1 87 10 is_stmt 0 view .LVU5
  40 0008 8FEF      		ldi r24,lo8(-1)
  41               	.LVL1:
  42               		.loc 1 87 10 view .LVU6
  43 000a 0E94 0000 		call spi_putc
  44               	.LVL2:
  45 000e 182F      		mov r17,r24
  46               	.LVL3:
  88:mcp2515_read_id.c **** 	tmp   = spi_putc(0xff);
  47               		.loc 1 88 2 is_stmt 1 view .LVU7
  48               		.loc 1 88 10 is_stmt 0 view .LVU8
  49 0010 8FEF      		ldi r24,lo8(-1)
  50 0012 0E94 0000 		call spi_putc
  51               	.LVL4:
  52 0016 982F      		mov r25,r24
  53               	.LVL5:
  89:mcp2515_read_id.c **** 	
  90:mcp2515_read_id.c **** 	if (tmp & (1 << IDE)) {
  54               		.loc 1 90 2 is_stmt 1 view .LVU9
  91:mcp2515_read_id.c **** 		spi_putc(0xff);
  55               		.loc 1 91 3 is_stmt 0 view .LVU10
  56 0018 8FEF      		ldi r24,lo8(-1)
  57               	.LVL6:
  90:mcp2515_read_id.c **** 		spi_putc(0xff);
  58               		.loc 1 90 5 view .LVU11
  59 001a 93FF      		sbrs r25,3
  60 001c 00C0      		rjmp .L2
  61               		.loc 1 91 3 is_stmt 1 view .LVU12
  62 001e 0E94 0000 		call spi_putc
  63               	.LVL7:
  92:mcp2515_read_id.c **** 		spi_putc(0xff);
  64               		.loc 1 92 3 view .LVU13
  65 0022 8FEF      		ldi r24,lo8(-1)
  66 0024 0E94 0000 		call spi_putc
  67               	.LVL8:
  93:mcp2515_read_id.c **** 		
  94:mcp2515_read_id.c **** 		return 1;			// extended-frame
  68               		.loc 1 94 3 view .LVU14
  69               		.loc 1 94 10 is_stmt 0 view .LVU15
  70 0028 81E0      		ldi r24,lo8(1)
  71               	.L1:
  72               	/* epilogue start */
  95:mcp2515_read_id.c **** 	}
  96:mcp2515_read_id.c **** 	else {
  97:mcp2515_read_id.c **** 		spi_start(0xff);
  98:mcp2515_read_id.c **** 		
  99:mcp2515_read_id.c **** 		*id = (uint16_t) first << 3;
 100:mcp2515_read_id.c **** 		
 101:mcp2515_read_id.c **** 		spi_wait();
 102:mcp2515_read_id.c **** 		spi_start(0xff);
 103:mcp2515_read_id.c **** 		
 104:mcp2515_read_id.c **** 		*((uint8_t *) id) |= tmp >> 5;
 105:mcp2515_read_id.c **** 		
 106:mcp2515_read_id.c **** 		spi_wait();
 107:mcp2515_read_id.c **** 		
 108:mcp2515_read_id.c **** 		if (tmp & (1 << SRR))
 109:mcp2515_read_id.c **** 			return 2;		// RTR-frame
 110:mcp2515_read_id.c **** 		else
 111:mcp2515_read_id.c **** 			return 0;		// normal-frame
 112:mcp2515_read_id.c **** 	}
 113:mcp2515_read_id.c **** }
  73               		.loc 1 113 1 view .LVU16
  74 002a DF91      		pop r29
  75 002c CF91      		pop r28
  76               	.LVL9:
  77               		.loc 1 113 1 view .LVU17
  78 002e 1F91      		pop r17
  79               	.LVL10:
  80               		.loc 1 113 1 view .LVU18
  81 0030 0895      		ret
  82               	.LVL11:
  83               	.L2:
  97:mcp2515_read_id.c **** 		
  84               		.loc 1 97 3 is_stmt 1 view .LVU19
  85               	.LBB10:
  86               	.LBI10:
  87               		.file 2 "spi.h"
   1:spi.h         **** // coding: utf-8
   2:spi.h         **** // ----------------------------------------------------------------------------
   3:spi.h         **** /*
   4:spi.h         ****  * Copyright (c) 2007 Fabian Greif, Roboterclub Aachen e.V.
   5:spi.h         ****  *  All rights reserved.
   6:spi.h         ****  *
   7:spi.h         ****  * Redistribution and use in source and binary forms, with or without
   8:spi.h         ****  * modification, are permitted provided that the following conditions
   9:spi.h         ****  * are met:
  10:spi.h         ****  * 1. Redistributions of source code must retain the above copyright
  11:spi.h         ****  *    notice, this list of conditions and the following disclaimer.
  12:spi.h         ****  * 2. Redistributions in binary form must reproduce the above copyright
  13:spi.h         ****  *    notice, this list of conditions and the following disclaimer in the
  14:spi.h         ****  *    documentation and/or other materials provided with the distribution.
  15:spi.h         ****  *
  16:spi.h         ****  * THIS SOFTWARE IS PROVIDED BY THE AUTHOR AND CONTRIBUTORS ``AS IS'' AND
  17:spi.h         ****  * ANY EXPRESS OR IMPLIED WARRANTIES, INCLUDING, BUT NOT LIMITED TO, THE
  18:spi.h         ****  * IMPLIED WARRANTIES OF MERCHANTABILITY AND FITNESS FOR A PARTICULAR PURPOSE
  19:spi.h         ****  * ARE DISCLAIMED.  IN NO EVENT SHALL THE REGENTS OR CONTRIBUTORS BE LIABLE
  20:spi.h         ****  * FOR ANY DIRECT, INDIRECT, INCIDENTAL, SPECIAL, EXEMPLARY, OR CONSEQUENTIAL
  21:spi.h         ****  * DAMAGES (INCLUDING, BUT NOT LIMITED TO, PROCUREMENT OF SUBSTITUTE GOODS
  22:spi.h         ****  * OR SERVICES; LOSS OF USE, DATA, OR PROFITS; OR BUSINESS INTERRUPTION)
  23:spi.h         ****  * HOWEVER CAUSED AND ON ANY THEORY OF LIABILITY, WHETHER IN CONTRACT, STRICT
  24:spi.h         ****  * LIABILITY, OR TORT (INCLUDING NEGLIGENCE OR OTHERWISE) ARISING IN ANY WAY
  25:spi.h         ****  * OUT OF THE USE OF THIS SOFTWARE, EVEN IF ADVISED OF THE POSSIBILITY OF
  26:spi.h         ****  * SUCH DAMAGE.
  27:spi.h         ****  *
  28:spi.h         ****  * $Id: spi.h 6910 2008-11-30 21:13:14Z fabian $
  29:spi.h         ****  */
  30:spi.h         **** // ----------------------------------------------------------------------------
  31:spi.h         **** 
  32:spi.h         **** #ifndef	SPI_H
  33:spi.h         **** #define	SPI_H
  34:spi.h         **** 
  35:spi.h         **** #include "can_private.h"
  36:spi.h         **** 
  37:spi.h         **** // ----------------------------------------------------------------------------
  38:spi.h         **** // load some default values
  39:spi.h         **** 
  40:spi.h         **** #ifndef SPI_PRESCALER
  41:spi.h         **** 	#define	SPI_PRESCALER			8
  42:spi.h         **** #endif
  43:spi.h         **** 
  44:spi.h         **** // ----------------------------------------------------------------------------
  45:spi.h         **** /**
  46:spi.h         ****  * \brief	Initialize SPI interface
  47:spi.h         ****  */
  48:spi.h         **** extern void mcp2515_spi_init(void);
  49:spi.h         **** 
  50:spi.h         **** // ----------------------------------------------------------------------------
  51:spi.h         **** /**
  52:spi.h         ****  * \brief	Write/read one byte of the SPI interface
  53:spi.h         ****  *
  54:spi.h         ****  * \param	data	Data to be written
  55:spi.h         ****  * \return	Data read from the slave
  56:spi.h         ****  */
  57:spi.h         **** extern uint8_t spi_putc(uint8_t data);
  58:spi.h         **** 
  59:spi.h         **** // ----------------------------------------------------------------------------
  60:spi.h         **** #ifdef USE_SOFTWARE_SPI
  61:spi.h         **** 
  62:spi.h         **** static uint8_t usi_interface_spi_temp;
  63:spi.h         **** 
  64:spi.h         **** extern __attribute__ ((gnu_inline)) inline void spi_start(uint8_t data) {
  65:spi.h         **** 	usi_interface_spi_temp = spi_putc(data);
  66:spi.h         **** }
  67:spi.h         **** 
  68:spi.h         **** extern __attribute__ ((gnu_inline)) inline uint8_t spi_wait(void) {
  69:spi.h         **** 	return usi_interface_spi_temp;
  70:spi.h         **** }
  71:spi.h         **** 
  72:spi.h         **** #else
  73:spi.h         **** 
  74:spi.h         **** extern __attribute__ ((gnu_inline)) inline void spi_start(uint8_t data) {
  88               		.loc 2 74 49 view .LVU20
  89               	.LBB11:
  75:spi.h         **** 	SPDR = data;
  90               		.loc 2 75 2 view .LVU21
  91               		.loc 2 75 7 is_stmt 0 view .LVU22
  92 0032 8FB9      		out 0xf,r24
  93               	.LVL12:
  94               		.loc 2 75 7 view .LVU23
  95               	.LBE11:
  96               	.LBE10:
  99:mcp2515_read_id.c **** 		
  97               		.loc 1 99 3 is_stmt 1 view .LVU24
  99:mcp2515_read_id.c **** 		
  98               		.loc 1 99 26 is_stmt 0 view .LVU25
  99 0034 88E0      		ldi r24,lo8(8)
 100 0036 189F      		mul r17,r24
 101 0038 9001      		movw r18,r0
 102 003a 1124      		clr __zero_reg__
  99:mcp2515_read_id.c **** 		
 103               		.loc 1 99 7 view .LVU26
 104 003c 3983      		std Y+1,r19
 105 003e 2883      		st Y,r18
 101:mcp2515_read_id.c **** 		spi_start(0xff);
 106               		.loc 1 101 3 is_stmt 1 view .LVU27
 107               	.LBB12:
 108               	.LBI12:
  76:spi.h         **** }
  77:spi.h         **** 
  78:spi.h         **** extern __attribute__ ((gnu_inline)) inline uint8_t spi_wait(void) {
 109               		.loc 2 78 52 view .LVU28
 110               	.L4:
 111               	.LBB13:
  79:spi.h         **** 	// warten bis der vorherige Werte geschrieben wurde
  80:spi.h         **** 	while(!(SPSR & (1<<SPIF)))
  81:spi.h         **** 		;
 112               		.loc 2 81 3 view .LVU29
  80:spi.h         **** 		;
 113               		.loc 2 80 7 view .LVU30
 114 0040 779B      		sbis 0xe,7
 115 0042 00C0      		rjmp .L4
  82:spi.h         **** 	
  83:spi.h         **** 	return SPDR;
 116               		.loc 2 83 2 view .LVU31
 117               		.loc 2 83 9 is_stmt 0 view .LVU32
 118 0044 8FB1      		in r24,0xf
 119               	.LBE13:
 120               	.LBE12:
 102:mcp2515_read_id.c **** 		
 121               		.loc 1 102 3 is_stmt 1 view .LVU33
 122               	.LVL13:
 123               	.LBB14:
 124               	.LBI14:
  74:spi.h         **** 	SPDR = data;
 125               		.loc 2 74 49 view .LVU34
 126               	.LBB15:
  75:spi.h         **** }
 127               		.loc 2 75 2 view .LVU35
  75:spi.h         **** }
 128               		.loc 2 75 7 is_stmt 0 view .LVU36
 129 0046 8FEF      		ldi r24,lo8(-1)
 130 0048 8FB9      		out 0xf,r24
 131               	.LVL14:
  75:spi.h         **** }
 132               		.loc 2 75 7 view .LVU37
 133               	.LBE15:
 134               	.LBE14:
 104:mcp2515_read_id.c **** 		
 135               		.loc 1 104 3 is_stmt 1 view .LVU38
 104:mcp2515_read_id.c **** 		
 136               		.loc 1 104 21 is_stmt 0 view .LVU39
 137 004a 8881      		ld r24,Y
 138 004c 292F      		mov r18,r25
 139 004e 2295      		swap r18
 140 0050 2695      		lsr r18
 141 0052 2770      		andi r18,lo8(7)
 142 0054 822B      		or r24,r18
 143 0056 8883      		st Y,r24
 106:mcp2515_read_id.c **** 		
 144               		.loc 1 106 3 is_stmt 1 view .LVU40
 145               	.LBB16:
 146               	.LBI16:
  78:spi.h         **** 	// warten bis der vorherige Werte geschrieben wurde
 147               		.loc 2 78 52 view .LVU41
 148               	.L5:
 149               	.LBB17:
  81:spi.h         **** 	
 150               		.loc 2 81 3 view .LVU42
  80:spi.h         **** 		;
 151               		.loc 2 80 7 view .LVU43
 152 0058 779B      		sbis 0xe,7
 153 005a 00C0      		rjmp .L5
 154               		.loc 2 83 2 view .LVU44
 155               		.loc 2 83 9 is_stmt 0 view .LVU45
 156 005c 8FB1      		in r24,0xf
 157               	.LBE17:
 158               	.LBE16:
 108:mcp2515_read_id.c **** 			return 2;		// RTR-frame
 159               		.loc 1 108 3 is_stmt 1 view .LVU46
 108:mcp2515_read_id.c **** 			return 2;		// RTR-frame
 160               		.loc 1 108 6 is_stmt 0 view .LVU47
 161 005e 892F      		mov r24,r25
 162 0060 8071      		andi r24,lo8(16)
 163 0062 94FF      		sbrs r25,4
 164 0064 00C0      		rjmp .L1
 109:mcp2515_read_id.c **** 		else
 165               		.loc 1 109 11 view .LVU48
 166 0066 82E0      		ldi r24,lo8(2)
 167 0068 00C0      		rjmp .L1
 168               		.cfi_endproc
 169               	.LFE19:
 171               	.Letext0:
 172               		.file 3 "/opt/homebrew/Cellar/avr-gcc@9/9.3.0_3/avr/include/stdint.h"