   1               		.file	"mcp2515.c"
   2               	__SP_H__ = 0x3e
   3               	__SP_L__ = 0x3d
   4               	__SREG__ = 0x3f
   5               	__tmp_reg__ = 0
   6               	__zero_reg__ = 1
   7               		.text
   8               	.Ltext0:
   9               		.cfi_sections	.debug_frame
  10               	.global	mcp2515_write_register
  12               	mcp2515_write_register:
  13               	.LVL0:
  14               	.LFB19:
  15               		.file 1 "mcp2515.c"
   1:mcp2515.c     **** // coding: utf-8
   2:mcp2515.c     **** // ----------------------------------------------------------------------------
   3:mcp2515.c     **** /*
   4:mcp2515.c     ****  * Copyright (c) 2007 Fabian Greif, Roboterclub Aachen e.V.
   5:mcp2515.c     ****  *  All rights reserved.
   6:mcp2515.c     ****  *
   7:mcp2515.c     ****  * Redistribution and use in source and binary forms, with or without
   8:mcp2515.c     ****  * modification, are permitted provided that the following conditions
   9:mcp2515.c     ****  * are met:
  10:mcp2515.c     ****  * 1. Redistributions of source code must retain the above copyright
  11:mcp2515.c     ****  *    notice, this list of conditions and the following disclaimer.
  12:mcp2515.c     ****  * 2. Redistributions in binary form must reproduce the above copyright
  13:mcp2515.c     ****  *    notice, this list of conditions and the following disclaimer in the
  14:mcp2515.c     ****  *    documentation and/or other materials provided with the distribution.
  15:mcp2515.c     ****  *
  16:mcp2515.c     ****  * THIS SOFTWARE IS PROVIDED BY THE AUTHOR AND CONTRIBUTORS ``AS IS'' AND
  17:mcp2515.c     ****  * ANY EXPRESS OR IMPLIED WARRANTIES, INCLUDING, BUT NOT LIMITED TO, THE
  18:mcp2515.c     ****  * IMPLIED WARRANTIES OF MERCHANTABILITY AND FITNESS FOR A PARTICULAR PURPOSE
  19:mcp2515.c     ****  * ARE DISCLAIMED.  IN NO EVENT SHALL THE REGENTS OR CONTRIBUTORS BE LIABLE
  20:mcp2515.c     ****  * FOR ANY DIRECT, INDIRECT, INCIDENTAL, SPECIAL, EXEMPLARY, OR CONSEQUENTIAL
  21:mcp2515.c     ****  * DAMAGES (INCLUDING, BUT NOT LIMITED TO, PROCUREMENT OF SUBSTITUTE GOODS
  22:mcp2515.c     ****  * OR SERVICES; LOSS OF USE, DATA, OR PROFITS; OR BUSINESS INTERRUPTION)
  23:mcp2515.c     ****  * HOWEVER CAUSED AND ON ANY THEORY OF LIABILITY, WHETHER IN CONTRACT, STRICT
  24:mcp2515.c     ****  * LIABILITY, OR TORT (INCLUDING NEGLIGENCE OR OTHERWISE) ARISING IN ANY WAY
  25:mcp2515.c     ****  * OUT OF THE USE OF THIS SOFTWARE, EVEN IF ADVISED OF THE POSSIBILITY OF
  26:mcp2515.c     ****  * SUCH DAMAGE.
  27:mcp2515.c     ****  *
  28:mcp2515.c     ****  * $Id: mcp2515.c 8086 2009-07-14 14:08:25Z fabian $
  29:mcp2515.c     ****  */
  30:mcp2515.c     **** // ----------------------------------------------------------------------------
  31:mcp2515.c     **** /* ---- Beispiel zum Einstellen des Bit Timings ----
  32:mcp2515.c     ****  *	
  33:mcp2515.c     ****  *	Fosc		= 16MHz
  34:mcp2515.c     ****  *	BRP			= 7
  35:mcp2515.c     ****  *	TQ 			= 2 * (BRP + 1) / Fosc
  36:mcp2515.c     ****  *				= 1 uS
  37:mcp2515.c     ****  *
  38:mcp2515.c     ****  *	Sync Seg	= 					= 1 TQ
  39:mcp2515.c     ****  *	Prop Seg	= (PRSEG + 1) * TQ	= 1 TQ
  40:mcp2515.c     ****  *	Phase Seg1	= (PHSEG1 + 1) * TQ	= 3 TQ
  41:mcp2515.c     ****  *	Phase Seg2	= (PHSEG2 + 1) * TQ = 3 TQ
  42:mcp2515.c     ****  *									--------
  43:mcp2515.c     ****  *									  8 TQ
  44:mcp2515.c     ****  *	
  45:mcp2515.c     ****  *	Bus speed	= 1 / ((Total # of TQ) * TQ)
  46:mcp2515.c     ****  *				= 1 / (8 * TQ) = 125 kHz
  47:mcp2515.c     ****  */
  48:mcp2515.c     **** // -------------------------------------------------------------------------
  49:mcp2515.c     **** 
  50:mcp2515.c     **** #include "mcp2515_private.h"
  51:mcp2515.c     **** #ifdef	SUPPORT_FOR_MCP2515__
  52:mcp2515.c     **** 
  53:mcp2515.c     **** #ifndef	MCP2515_CLKOUT_PRESCALER
  54:mcp2515.c     **** 	#error	MCP2515_CLKOUT_PRESCALER not defined!
  55:mcp2515.c     **** #elif MCP2515_CLKOUT_PRESCALER == 0
  56:mcp2515.c     **** 	#define	CLKOUT_PRESCALER_	0x0
  57:mcp2515.c     **** #elif MCP2515_CLKOUT_PRESCALER == 1
  58:mcp2515.c     **** 	#define	CLKOUT_PRESCALER_	0x4
  59:mcp2515.c     **** #elif MCP2515_CLKOUT_PRESCALER == 2
  60:mcp2515.c     **** 	#define	CLKOUT_PRESCALER_	0x5
  61:mcp2515.c     **** #elif MCP2515_CLKOUT_PRESCALER == 4
  62:mcp2515.c     **** 	#define	CLKOUT_PRESCALER_	0x6
  63:mcp2515.c     **** #elif MCP2515_CLKOUT_PRESCALER == 8
  64:mcp2515.c     **** 	#define	CLKOUT_PRESCALER_	0x7
  65:mcp2515.c     **** #else
  66:mcp2515.c     **** 	#error	invaild value of MCP2515_CLKOUT_PRESCALER
  67:mcp2515.c     **** #endif
  68:mcp2515.c     **** 
  69:mcp2515.c     **** // -------------------------------------------------------------------------
  70:mcp2515.c     **** void mcp2515_write_register( uint8_t adress, uint8_t data )
  71:mcp2515.c     **** {
  16               		.loc 1 71 1 view -0
  17               		.cfi_startproc
  18               		.loc 1 71 1 is_stmt 0 view .LVU1
  19 0000 CF93      		push r28
  20               	.LCFI0:
  21               		.cfi_def_cfa_offset 3
  22               		.cfi_offset 28, -2
  23 0002 DF93      		push r29
  24               	.LCFI1:
  25               		.cfi_def_cfa_offset 4
  26               		.cfi_offset 29, -3
  27               	/* prologue: function */
  28               	/* frame size = 0 */
  29               	/* stack size = 2 */
  30               	.L__stack_usage = 2
  31 0004 D82F      		mov r29,r24
  32 0006 C62F      		mov r28,r22
  72:mcp2515.c     **** 	RESET(MCP2515_CS);
  33               		.loc 1 72 2 is_stmt 1 view .LVU2
  34 0008 C098      		cbi 0x18,0
  73:mcp2515.c     **** 	
  74:mcp2515.c     **** 	spi_putc(SPI_WRITE);
  35               		.loc 1 74 2 view .LVU3
  36 000a 82E0      		ldi r24,lo8(2)
  37               	.LVL1:
  38               		.loc 1 74 2 is_stmt 0 view .LVU4
  39 000c 0E94 0000 		call spi_putc
  40               	.LVL2:
  75:mcp2515.c     **** 	spi_putc(adress);
  41               		.loc 1 75 2 is_stmt 1 view .LVU5
  42 0010 8D2F      		mov r24,r29
  43 0012 0E94 0000 		call spi_putc
  44               	.LVL3:
  76:mcp2515.c     **** 	spi_putc(data);
  45               		.loc 1 76 2 view .LVU6
  46 0016 8C2F      		mov r24,r28
  47 0018 0E94 0000 		call spi_putc
  48               	.LVL4:
  77:mcp2515.c     **** 	
  78:mcp2515.c     **** 	SET(MCP2515_CS);
  49               		.loc 1 78 2 view .LVU7
  50 001c C09A      		sbi 0x18,0
  51               	/* epilogue start */
  79:mcp2515.c     **** }
  52               		.loc 1 79 1 is_stmt 0 view .LVU8
  53 001e DF91      		pop r29
  54               	.LVL5:
  55               		.loc 1 79 1 view .LVU9
  56 0020 CF91      		pop r28
  57               	.LVL6:
  58               		.loc 1 79 1 view .LVU10
  59 0022 0895      		ret
  60               		.cfi_endproc
  61               	.LFE19:
  63               	.global	mcp2515_read_register
  65               	mcp2515_read_register:
  66               	.LVL7:
  67               	.LFB20:
  80:mcp2515.c     **** 
  81:mcp2515.c     **** // -------------------------------------------------------------------------
  82:mcp2515.c     **** uint8_t mcp2515_read_register(uint8_t adress)
  83:mcp2515.c     **** {
  68               		.loc 1 83 1 is_stmt 1 view -0
  69               		.cfi_startproc
  70               		.loc 1 83 1 is_stmt 0 view .LVU12
  71 0024 CF93      		push r28
  72               	.LCFI2:
  73               		.cfi_def_cfa_offset 3
  74               		.cfi_offset 28, -2
  75               	/* prologue: function */
  76               	/* frame size = 0 */
  77               	/* stack size = 1 */
  78               	.L__stack_usage = 1
  79 0026 C82F      		mov r28,r24
  84:mcp2515.c     **** 	uint8_t data;
  80               		.loc 1 84 2 is_stmt 1 view .LVU13
  85:mcp2515.c     **** 	
  86:mcp2515.c     **** 	RESET(MCP2515_CS);
  81               		.loc 1 86 2 view .LVU14
  82 0028 C098      		cbi 0x18,0
  87:mcp2515.c     **** 	
  88:mcp2515.c     **** 	spi_putc(SPI_READ);
  83               		.loc 1 88 2 view .LVU15
  84 002a 83E0      		ldi r24,lo8(3)
  85               	.LVL8:
  86               		.loc 1 88 2 is_stmt 0 view .LVU16
  87 002c 0E94 0000 		call spi_putc
  88               	.LVL9:
  89:mcp2515.c     **** 	spi_putc(adress);
  89               		.loc 1 89 2 is_stmt 1 view .LVU17
  90 0030 8C2F      		mov r24,r28
  91 0032 0E94 0000 		call spi_putc
  92               	.LVL10:
  90:mcp2515.c     **** 	
  91:mcp2515.c     **** 	data = spi_putc(0xff);	
  93               		.loc 1 91 2 view .LVU18
  94               		.loc 1 91 9 is_stmt 0 view .LVU19
  95 0036 8FEF      		ldi r24,lo8(-1)
  96 0038 0E94 0000 		call spi_putc
  97               	.LVL11:
  92:mcp2515.c     **** 	
  93:mcp2515.c     **** 	SET(MCP2515_CS);
  98               		.loc 1 93 2 is_stmt 1 view .LVU20
  99 003c C09A      		sbi 0x18,0
  94:mcp2515.c     **** 	
  95:mcp2515.c     **** 	return data;
 100               		.loc 1 95 2 view .LVU21
 101               	/* epilogue start */
  96:mcp2515.c     **** }
 102               		.loc 1 96 1 is_stmt 0 view .LVU22
 103 003e CF91      		pop r28
 104               	.LVL12:
 105               		.loc 1 96 1 view .LVU23
 106 0040 0895      		ret
 107               		.cfi_endproc
 108               	.LFE20:
 110               	.global	mcp2515_bit_modify
 112               	mcp2515_bit_modify:
 113               	.LVL13:
 114               	.LFB21:
  97:mcp2515.c     **** 
  98:mcp2515.c     **** // -------------------------------------------------------------------------
  99:mcp2515.c     **** void mcp2515_bit_modify(uint8_t adress, uint8_t mask, uint8_t data)
 100:mcp2515.c     **** {
 115               		.loc 1 100 1 is_stmt 1 view -0
 116               		.cfi_startproc
 117               		.loc 1 100 1 is_stmt 0 view .LVU25
 118 0042 1F93      		push r17
 119               	.LCFI3:
 120               		.cfi_def_cfa_offset 3
 121               		.cfi_offset 17, -2
 122 0044 CF93      		push r28
 123               	.LCFI4:
 124               		.cfi_def_cfa_offset 4
 125               		.cfi_offset 28, -3
 126 0046 DF93      		push r29
 127               	.LCFI5:
 128               		.cfi_def_cfa_offset 5
 129               		.cfi_offset 29, -4
 130               	/* prologue: function */
 131               	/* frame size = 0 */
 132               	/* stack size = 3 */
 133               	.L__stack_usage = 3
 134 0048 182F      		mov r17,r24
 135 004a D62F      		mov r29,r22
 136 004c C42F      		mov r28,r20
 101:mcp2515.c     **** 	RESET(MCP2515_CS);
 137               		.loc 1 101 2 is_stmt 1 view .LVU26
 138 004e C098      		cbi 0x18,0
 102:mcp2515.c     **** 	
 103:mcp2515.c     **** 	spi_putc(SPI_BIT_MODIFY);
 139               		.loc 1 103 2 view .LVU27
 140 0050 85E0      		ldi r24,lo8(5)
 141               	.LVL14:
 142               		.loc 1 103 2 is_stmt 0 view .LVU28
 143 0052 0E94 0000 		call spi_putc
 144               	.LVL15:
 104:mcp2515.c     **** 	spi_putc(adress);
 145               		.loc 1 104 2 is_stmt 1 view .LVU29
 146 0056 812F      		mov r24,r17
 147 0058 0E94 0000 		call spi_putc
 148               	.LVL16:
 105:mcp2515.c     **** 	spi_putc(mask);
 149               		.loc 1 105 2 view .LVU30
 150 005c 8D2F      		mov r24,r29
 151 005e 0E94 0000 		call spi_putc
 152               	.LVL17:
 106:mcp2515.c     **** 	spi_putc(data);
 153               		.loc 1 106 2 view .LVU31
 154 0062 8C2F      		mov r24,r28
 155 0064 0E94 0000 		call spi_putc
 156               	.LVL18:
 107:mcp2515.c     **** 	
 108:mcp2515.c     **** 	SET(MCP2515_CS);
 157               		.loc 1 108 2 view .LVU32
 158 0068 C09A      		sbi 0x18,0
 159               	/* epilogue start */
 109:mcp2515.c     **** }
 160               		.loc 1 109 1 is_stmt 0 view .LVU33
 161 006a DF91      		pop r29
 162               	.LVL19:
 163               		.loc 1 109 1 view .LVU34
 164 006c CF91      		pop r28
 165               	.LVL20:
 166               		.loc 1 109 1 view .LVU35
 167 006e 1F91      		pop r17
 168               	.LVL21:
 169               		.loc 1 109 1 view .LVU36
 170 0070 0895      		ret
 171               		.cfi_endproc
 172               	.LFE21:
 174               	.global	mcp2515_read_status
 176               	mcp2515_read_status:
 177               	.LVL22:
 178               	.LFB22:
 110:mcp2515.c     **** 
 111:mcp2515.c     **** // ----------------------------------------------------------------------------
 112:mcp2515.c     **** uint8_t mcp2515_read_status(uint8_t type)
 113:mcp2515.c     **** {
 179               		.loc 1 113 1 is_stmt 1 view -0
 180               		.cfi_startproc
 181               	/* prologue: function */
 182               	/* frame size = 0 */
 183               	/* stack size = 0 */
 184               	.L__stack_usage = 0
 114:mcp2515.c     **** 	uint8_t data;
 185               		.loc 1 114 2 view .LVU38
 115:mcp2515.c     **** 	
 116:mcp2515.c     **** 	RESET(MCP2515_CS);
 186               		.loc 1 116 2 view .LVU39
 187 0072 C098      		cbi 0x18,0
 117:mcp2515.c     **** 	
 118:mcp2515.c     **** 	spi_putc(type);
 188               		.loc 1 118 2 view .LVU40
 189 0074 0E94 0000 		call spi_putc
 190               	.LVL23:
 119:mcp2515.c     **** 	data = spi_putc(0xff);
 191               		.loc 1 119 2 view .LVU41
 192               		.loc 1 119 9 is_stmt 0 view .LVU42
 193 0078 8FEF      		ldi r24,lo8(-1)
 194 007a 0E94 0000 		call spi_putc
 195               	.LVL24:
 120:mcp2515.c     **** 	
 121:mcp2515.c     **** 	SET(MCP2515_CS);
 196               		.loc 1 121 2 is_stmt 1 view .LVU43
 197 007e C09A      		sbi 0x18,0
 122:mcp2515.c     **** 	
 123:mcp2515.c     **** 	return data;
 198               		.loc 1 123 2 view .LVU44
 199               	/* epilogue start */
 124:mcp2515.c     **** }
 200               		.loc 1 124 1 is_stmt 0 view .LVU45
 201 0080 0895      		ret
 202               		.cfi_endproc
 203               	.LFE22:
 205               	.global	can_init
 207               	can_init:
 208               	.LVL25:
 209               	.LFB23:
 125:mcp2515.c     **** 
 126:mcp2515.c     **** // -------------------------------------------------------------------------
 127:mcp2515.c     **** 
 128:mcp2515.c     **** const uint8_t _mcp2515_cnf[8][3] PROGMEM = {
 129:mcp2515.c     **** 	// 10 kbps
 130:mcp2515.c     **** 	{	0x04,
 131:mcp2515.c     **** 		0xb6,
 132:mcp2515.c     **** 		0xe7
 133:mcp2515.c     **** 	},
 134:mcp2515.c     **** 	// 20 kbps
 135:mcp2515.c     **** 	{	0x04,
 136:mcp2515.c     **** 		0xb6,
 137:mcp2515.c     **** 		0xd3
 138:mcp2515.c     **** 	},
 139:mcp2515.c     **** 	// 50 kbps
 140:mcp2515.c     **** 	{	0x04,
 141:mcp2515.c     **** 		0xb6,
 142:mcp2515.c     **** 		0xc7
 143:mcp2515.c     **** 	},
 144:mcp2515.c     **** 	// 100 kbps
 145:mcp2515.c     **** 	{	0x04,
 146:mcp2515.c     **** 		0xb6,
 147:mcp2515.c     **** 		0xc3
 148:mcp2515.c     **** 	},
 149:mcp2515.c     **** 	// 125 kbps
 150:mcp2515.c     **** 	{	(1<<PHSEG21),					// CNF3
 151:mcp2515.c     **** 		(1<<BTLMODE)|(1<<PHSEG11),		// CNF2
 152:mcp2515.c     **** 		(1<<BRP2)|(1<<BRP1)|(1<<BRP0)	// CNF1
 153:mcp2515.c     **** 	},
 154:mcp2515.c     **** 	// 250 kbps
 155:mcp2515.c     **** 	{	0x03,
 156:mcp2515.c     **** 		0xac,
 157:mcp2515.c     **** 		0x81
 158:mcp2515.c     **** 	},
 159:mcp2515.c     **** 	// 500 kbps
 160:mcp2515.c     **** 	{	0x03,
 161:mcp2515.c     **** 		0xac,
 162:mcp2515.c     **** 		0x80
 163:mcp2515.c     **** 	},
 164:mcp2515.c     **** 	// 1 Mbps
 165:mcp2515.c     **** 	{	(1<<PHSEG21),
 166:mcp2515.c     **** 		(1<<BTLMODE)|(1<<PHSEG11),
 167:mcp2515.c     **** 		0
 168:mcp2515.c     **** 	}
 169:mcp2515.c     **** };
 170:mcp2515.c     **** 
 171:mcp2515.c     **** // -------------------------------------------------------------------------
 172:mcp2515.c     **** bool mcp2515_init(can_bitrate_t bitrate)
 173:mcp2515.c     **** {
 210               		.loc 1 173 1 is_stmt 1 view -0
 211               		.cfi_startproc
 212               		.loc 1 173 1 is_stmt 0 view .LVU47
 213 0082 EF92      		push r14
 214               	.LCFI6:
 215               		.cfi_def_cfa_offset 3
 216               		.cfi_offset 14, -2
 217 0084 FF92      		push r15
 218               	.LCFI7:
 219               		.cfi_def_cfa_offset 4
 220               		.cfi_offset 15, -3
 221 0086 1F93      		push r17
 222               	.LCFI8:
 223               		.cfi_def_cfa_offset 5
 224               		.cfi_offset 17, -4
 225 0088 CF93      		push r28
 226               	.LCFI9:
 227               		.cfi_def_cfa_offset 6
 228               		.cfi_offset 28, -5
 229 008a DF93      		push r29
 230               	.LCFI10:
 231               		.cfi_def_cfa_offset 7
 232               		.cfi_offset 29, -6
 233               	/* prologue: function */
 234               	/* frame size = 0 */
 235               	/* stack size = 5 */
 236               	.L__stack_usage = 5
 237 008c C82F      		mov r28,r24
 174:mcp2515.c     **** 	if (bitrate >= 8)
 238               		.loc 1 174 2 is_stmt 1 view .LVU48
 239               		.loc 1 174 5 is_stmt 0 view .LVU49
 240 008e 8830      		cpi r24,lo8(8)
 241 0090 00F0      		brlo .L6
 242               	.LVL26:
 243               	.L9:
 175:mcp2515.c     **** 		return false;
 244               		.loc 1 175 10 view .LVU50
 245 0092 80E0      		ldi r24,0
 246               	.L5:
 247               	/* epilogue start */
 176:mcp2515.c     **** 	
 177:mcp2515.c     **** 	SET(MCP2515_CS);
 178:mcp2515.c     **** 	SET_OUTPUT(MCP2515_CS);
 179:mcp2515.c     **** 	SET(MFRC522_CS);
 180:mcp2515.c     **** 	SET_OUTPUT(MFRC522_CS);
 181:mcp2515.c     **** 	
 182:mcp2515.c     **** 	
 183:mcp2515.c     **** 	// Aktivieren der Pins fuer das SPI Interface
 184:mcp2515.c     **** 	RESET(P_SCK);
 185:mcp2515.c     **** 	RESET(P_MOSI);
 186:mcp2515.c     **** 	RESET(P_MISO);
 187:mcp2515.c     **** 	
 188:mcp2515.c     **** 	SET_OUTPUT(P_SCK);
 189:mcp2515.c     **** 	SET_OUTPUT(P_MOSI);
 190:mcp2515.c     **** 	SET_INPUT(P_MISO);
 191:mcp2515.c     **** 	
 192:mcp2515.c     **** 	// SPI Einstellung setzen
 193:mcp2515.c     **** 	mcp2515_spi_init();
 194:mcp2515.c     **** 	
 195:mcp2515.c     **** 	// MCP2515 per Software Reset zuruecksetzten,
 196:mcp2515.c     **** 	// danach ist er automatisch im Konfigurations Modus
 197:mcp2515.c     **** 	RESET(MCP2515_CS);
 198:mcp2515.c     **** 	spi_putc(SPI_RESET);
 199:mcp2515.c     **** 	
 200:mcp2515.c     **** 	_delay_ms(1);
 201:mcp2515.c     **** 	
 202:mcp2515.c     **** 	SET(MCP2515_CS);
 203:mcp2515.c     **** 	
 204:mcp2515.c     **** 	// ein bisschen warten bis der MCP2515 sich neu gestartet hat
 205:mcp2515.c     **** 	_delay_ms(10);
 206:mcp2515.c     **** 	
 207:mcp2515.c     **** 	// CNF1..3 Register laden (Bittiming)
 208:mcp2515.c     **** 	RESET(MCP2515_CS);
 209:mcp2515.c     **** 	spi_putc(SPI_WRITE);
 210:mcp2515.c     **** 	spi_putc(CNF3);
 211:mcp2515.c     **** 	for (uint8_t i=0; i<3 ;i++ ) {
 212:mcp2515.c     **** 		spi_putc(pgm_read_byte(&_mcp2515_cnf[bitrate][i]));
 213:mcp2515.c     **** 	}
 214:mcp2515.c     **** 	// aktivieren/deaktivieren der Interrupts
 215:mcp2515.c     **** 	spi_putc(MCP2515_INTERRUPTS);
 216:mcp2515.c     **** 	SET(MCP2515_CS);
 217:mcp2515.c     **** 	
 218:mcp2515.c     **** 	// TXnRTS Bits als Inputs schalten
 219:mcp2515.c     **** 	mcp2515_write_register(TXRTSCTRL, 0);
 220:mcp2515.c     **** 	
 221:mcp2515.c     **** 	#if defined(MCP2515_INT)
 222:mcp2515.c     **** 		SET_INPUT(MCP2515_INT);
 223:mcp2515.c     **** 		SET(MCP2515_INT);
 224:mcp2515.c     **** 	#endif
 225:mcp2515.c     **** 	
 226:mcp2515.c     **** 	#ifdef RXnBF_FUNKTION
 227:mcp2515.c     **** 		SET_INPUT(MCP2515_RX0BF);
 228:mcp2515.c     **** 		SET_INPUT(MCP2515_RX1BF);
 229:mcp2515.c     **** 		
 230:mcp2515.c     **** 		SET(MCP2515_RX0BF);
 231:mcp2515.c     **** 		SET(MCP2515_RX1BF);
 232:mcp2515.c     **** 		
 233:mcp2515.c     **** 		// Aktivieren der Pin-Funktionen fuer RX0BF und RX1BF
 234:mcp2515.c     **** 		mcp2515_write_register(BFPCTRL, (1<<B0BFE)|(1<<B1BFE)|(1<<B0BFM)|(1<<B1BFM));
 235:mcp2515.c     **** 	#else
 236:mcp2515.c     **** 		#ifdef MCP2515_TRANSCEIVER_SLEEP
 237:mcp2515.c     **** 			// activate the pin RX1BF as GPIO which is connected 
 238:mcp2515.c     **** 			// to RS of MCP2551 and set it to 0
 239:mcp2515.c     **** 			mcp2515_write_register(BFPCTRL, (1<<B1BFE));
 240:mcp2515.c     **** 		#else
 241:mcp2515.c     **** 			// Deaktivieren der Pins RXnBF Pins (High Impedance State)
 242:mcp2515.c     **** 			mcp2515_write_register(BFPCTRL, 0);
 243:mcp2515.c     **** 		#endif
 244:mcp2515.c     **** 	#endif
 245:mcp2515.c     **** 	
 246:mcp2515.c     **** 	// Testen ob das auf die beschreibenen Register zugegriffen werden kann
 247:mcp2515.c     **** 	// (=> ist der Chip ueberhaupt ansprechbar?)
 248:mcp2515.c     **** 	bool error = false;
 249:mcp2515.c     **** 	if (mcp2515_read_register(CNF2) != pgm_read_byte(&_mcp2515_cnf[bitrate][1])) {
 250:mcp2515.c     **** 		error = true;
 251:mcp2515.c     **** 	}
 252:mcp2515.c     **** 	
 253:mcp2515.c     **** 	// Device zurueck in den normalen Modus versetzten
 254:mcp2515.c     **** 	// und aktivieren/deaktivieren des Clkout-Pins
 255:mcp2515.c     **** 	mcp2515_write_register(CANCTRL, CLKOUT_PRESCALER_);
 256:mcp2515.c     **** 	
 257:mcp2515.c     **** 	if (error) {
 258:mcp2515.c     **** 		return false;
 259:mcp2515.c     **** 	}
 260:mcp2515.c     **** 	else
 261:mcp2515.c     **** 	{
 262:mcp2515.c     **** 		while ((mcp2515_read_register(CANSTAT) & 0xe0) != 0) {
 263:mcp2515.c     **** 			// warten bis der neue Modus uebernommen wurde
 264:mcp2515.c     **** 		}
 265:mcp2515.c     **** 		
 266:mcp2515.c     **** 		return true;
 267:mcp2515.c     **** 	}
 268:mcp2515.c     **** }
 248               		.loc 1 268 1 view .LVU51
 249 0094 DF91      		pop r29
 250 0096 CF91      		pop r28
 251 0098 1F91      		pop r17
 252 009a FF90      		pop r15
 253 009c EF90      		pop r14
 254 009e 0895      		ret
 255               	.LVL27:
 256               	.L6:
 177:mcp2515.c     **** 	SET_OUTPUT(MCP2515_CS);
 257               		.loc 1 177 2 is_stmt 1 view .LVU52
 258 00a0 C09A      		sbi 0x18,0
 178:mcp2515.c     **** 	SET(MFRC522_CS);
 259               		.loc 1 178 2 view .LVU53
 260 00a2 B89A      		sbi 0x17,0
 179:mcp2515.c     **** 	SET_OUTPUT(MFRC522_CS);
 261               		.loc 1 179 2 view .LVU54
 262 00a4 C49A      		sbi 0x18,4
 180:mcp2515.c     **** 	
 263               		.loc 1 180 2 view .LVU55
 264 00a6 BC9A      		sbi 0x17,4
 184:mcp2515.c     **** 	RESET(P_MOSI);
 265               		.loc 1 184 2 view .LVU56
 266 00a8 C798      		cbi 0x18,7
 185:mcp2515.c     **** 	RESET(P_MISO);
 267               		.loc 1 185 2 view .LVU57
 268 00aa C598      		cbi 0x18,5
 186:mcp2515.c     **** 	
 269               		.loc 1 186 2 view .LVU58
 270 00ac C698      		cbi 0x18,6
 188:mcp2515.c     **** 	SET_OUTPUT(P_MOSI);
 271               		.loc 1 188 2 view .LVU59
 272 00ae BF9A      		sbi 0x17,7
 189:mcp2515.c     **** 	SET_INPUT(P_MISO);
 273               		.loc 1 189 2 view .LVU60
 274 00b0 BD9A      		sbi 0x17,5
 190:mcp2515.c     **** 	
 275               		.loc 1 190 2 view .LVU61
 276 00b2 BE98      		cbi 0x17,6
 193:mcp2515.c     **** 	
 277               		.loc 1 193 2 view .LVU62
 278 00b4 0E94 0000 		call mcp2515_spi_init
 279               	.LVL28:
 197:mcp2515.c     **** 	spi_putc(SPI_RESET);
 280               		.loc 1 197 2 view .LVU63
 281 00b8 C098      		cbi 0x18,0
 198:mcp2515.c     **** 	
 282               		.loc 1 198 2 view .LVU64
 283 00ba 80EC      		ldi r24,lo8(-64)
 284 00bc 0E94 0000 		call spi_putc
 285               	.LVL29:
 200:mcp2515.c     **** 	
 286               		.loc 1 200 2 view .LVU65
 287               	.LBB9:
 288               	.LBI9:
 289               		.file 2 "/opt/homebrew/Cellar/avr-gcc@9/9.3.0_3/avr/include/util/delay.h"
   1:/opt/homebrew/Cellar/avr-gcc@9/9.3.0_3/avr/include/util/delay.h **** /* Copyright (c) 2002, Marek Michalkiewicz
   2:/opt/homebrew/Cellar/avr-gcc@9/9.3.0_3/avr/include/util/delay.h ****    Copyright (c) 2004,2005,2007 Joerg Wunsch
   3:/opt/homebrew/Cellar/avr-gcc@9/9.3.0_3/avr/include/util/delay.h ****    Copyright (c) 2007  Florin-Viorel Petrov
   4:/opt/homebrew/Cellar/avr-gcc@9/9.3.0_3/avr/include/util/delay.h ****    All rights reserved.
   5:/opt/homebrew/Cellar/avr-gcc@9/9.3.0_3/avr/include/util/delay.h **** 
   6:/opt/homebrew/Cellar/avr-gcc@9/9.3.0_3/avr/include/util/delay.h ****    Redistribution and use in source and binary forms, with or without
   7:/opt/homebrew/Cellar/avr-gcc@9/9.3.0_3/avr/include/util/delay.h ****    modification, are permitted provided that the following conditions are met:
   8:/opt/homebrew/Cellar/avr-gcc@9/9.3.0_3/avr/include/util/delay.h **** 
   9:/opt/homebrew/Cellar/avr-gcc@9/9.3.0_3/avr/include/util/delay.h ****    * Redistributions of source code must retain the above copyright
  10:/opt/homebrew/Cellar/avr-gcc@9/9.3.0_3/avr/include/util/delay.h ****      notice, this list of conditions and the following disclaimer.
  11:/opt/homebrew/Cellar/avr-gcc@9/9.3.0_3/avr/include/util/delay.h **** 
  12:/opt/homebrew/Cellar/avr-gcc@9/9.3.0_3/avr/include/util/delay.h ****    * Redistributions in binary form must reproduce the above copyright
  13:/opt/homebrew/Cellar/avr-gcc@9/9.3.0_3/avr/include/util/delay.h ****      notice, this list of conditions and the following disclaimer in
  14:/opt/homebrew/Cellar/avr-gcc@9/9.3.0_3/avr/include/util/delay.h ****      the documentation and/or other materials provided with the
  15:/opt/homebrew/Cellar/avr-gcc@9/9.3.0_3/avr/include/util/delay.h ****      distribution.
  16:/opt/homebrew/Cellar/avr-gcc@9/9.3.0_3/avr/include/util/delay.h **** 
  17:/opt/homebrew/Cellar/avr-gcc@9/9.3.0_3/avr/include/util/delay.h ****    * Neither the name of the copyright holders nor the names of
  18:/opt/homebrew/Cellar/avr-gcc@9/9.3.0_3/avr/include/util/delay.h ****      contributors may be used to endorse or promote products derived
  19:/opt/homebrew/Cellar/avr-gcc@9/9.3.0_3/avr/include/util/delay.h ****      from this software without specific prior written permission.
  20:/opt/homebrew/Cellar/avr-gcc@9/9.3.0_3/avr/include/util/delay.h **** 
  21:/opt/homebrew/Cellar/avr-gcc@9/9.3.0_3/avr/include/util/delay.h ****   THIS SOFTWARE IS PROVIDED BY THE COPYRIGHT HOLDERS AND CONTRIBUTORS "AS IS"
  22:/opt/homebrew/Cellar/avr-gcc@9/9.3.0_3/avr/include/util/delay.h ****   AND ANY EXPRESS OR IMPLIED WARRANTIES, INCLUDING, BUT NOT LIMITED TO, THE
  23:/opt/homebrew/Cellar/avr-gcc@9/9.3.0_3/avr/include/util/delay.h ****   IMPLIED WARRANTIES OF MERCHANTABILITY AND FITNESS FOR A PARTICULAR PURPOSE
  24:/opt/homebrew/Cellar/avr-gcc@9/9.3.0_3/avr/include/util/delay.h ****   ARE DISCLAIMED. IN NO EVENT SHALL THE COPYRIGHT OWNER OR CONTRIBUTORS BE
  25:/opt/homebrew/Cellar/avr-gcc@9/9.3.0_3/avr/include/util/delay.h ****   LIABLE FOR ANY DIRECT, INDIRECT, INCIDENTAL, SPECIAL, EXEMPLARY, OR
  26:/opt/homebrew/Cellar/avr-gcc@9/9.3.0_3/avr/include/util/delay.h ****   CONSEQUENTIAL DAMAGES (INCLUDING, BUT NOT LIMITED TO, PROCUREMENT OF
  27:/opt/homebrew/Cellar/avr-gcc@9/9.3.0_3/avr/include/util/delay.h ****   SUBSTITUTE GOODS OR SERVICES; LOSS OF USE, DATA, OR PROFITS; OR BUSINESS
  28:/opt/homebrew/Cellar/avr-gcc@9/9.3.0_3/avr/include/util/delay.h ****   INTERRUPTION) HOWEVER CAUSED AND ON ANY THEORY OF LIABILITY, WHETHER IN
  29:/opt/homebrew/Cellar/avr-gcc@9/9.3.0_3/avr/include/util/delay.h ****   CONTRACT, STRICT LIABILITY, OR TORT (INCLUDING NEGLIGENCE OR OTHERWISE)
  30:/opt/homebrew/Cellar/avr-gcc@9/9.3.0_3/avr/include/util/delay.h ****   ARISING IN ANY WAY OUT OF THE USE OF THIS SOFTWARE, EVEN IF ADVISED OF THE
  31:/opt/homebrew/Cellar/avr-gcc@9/9.3.0_3/avr/include/util/delay.h ****   POSSIBILITY OF SUCH DAMAGE. */
  32:/opt/homebrew/Cellar/avr-gcc@9/9.3.0_3/avr/include/util/delay.h **** 
  33:/opt/homebrew/Cellar/avr-gcc@9/9.3.0_3/avr/include/util/delay.h **** /* $Id: delay.h.in 2506 2016-02-08 10:05:45Z joerg_wunsch $ */
  34:/opt/homebrew/Cellar/avr-gcc@9/9.3.0_3/avr/include/util/delay.h **** 
  35:/opt/homebrew/Cellar/avr-gcc@9/9.3.0_3/avr/include/util/delay.h **** #ifndef _UTIL_DELAY_H_
  36:/opt/homebrew/Cellar/avr-gcc@9/9.3.0_3/avr/include/util/delay.h **** #define _UTIL_DELAY_H_ 1
  37:/opt/homebrew/Cellar/avr-gcc@9/9.3.0_3/avr/include/util/delay.h **** 
  38:/opt/homebrew/Cellar/avr-gcc@9/9.3.0_3/avr/include/util/delay.h **** #ifndef __DOXYGEN__
  39:/opt/homebrew/Cellar/avr-gcc@9/9.3.0_3/avr/include/util/delay.h **** #  ifndef __HAS_DELAY_CYCLES
  40:/opt/homebrew/Cellar/avr-gcc@9/9.3.0_3/avr/include/util/delay.h **** #    define __HAS_DELAY_CYCLES 1
  41:/opt/homebrew/Cellar/avr-gcc@9/9.3.0_3/avr/include/util/delay.h **** #  endif
  42:/opt/homebrew/Cellar/avr-gcc@9/9.3.0_3/avr/include/util/delay.h **** #endif  /* __DOXYGEN__ */
  43:/opt/homebrew/Cellar/avr-gcc@9/9.3.0_3/avr/include/util/delay.h **** 
  44:/opt/homebrew/Cellar/avr-gcc@9/9.3.0_3/avr/include/util/delay.h **** #include <inttypes.h>
  45:/opt/homebrew/Cellar/avr-gcc@9/9.3.0_3/avr/include/util/delay.h **** #include <util/delay_basic.h>
  46:/opt/homebrew/Cellar/avr-gcc@9/9.3.0_3/avr/include/util/delay.h **** #include <math.h>
  47:/opt/homebrew/Cellar/avr-gcc@9/9.3.0_3/avr/include/util/delay.h **** 
  48:/opt/homebrew/Cellar/avr-gcc@9/9.3.0_3/avr/include/util/delay.h **** /** \file */
  49:/opt/homebrew/Cellar/avr-gcc@9/9.3.0_3/avr/include/util/delay.h **** /** \defgroup util_delay <util/delay.h>: Convenience functions for busy-wait delay loops
  50:/opt/homebrew/Cellar/avr-gcc@9/9.3.0_3/avr/include/util/delay.h ****     \code
  51:/opt/homebrew/Cellar/avr-gcc@9/9.3.0_3/avr/include/util/delay.h ****     #define F_CPU 1000000UL  // 1 MHz
  52:/opt/homebrew/Cellar/avr-gcc@9/9.3.0_3/avr/include/util/delay.h ****     //#define F_CPU 14.7456E6
  53:/opt/homebrew/Cellar/avr-gcc@9/9.3.0_3/avr/include/util/delay.h ****     #include <util/delay.h>
  54:/opt/homebrew/Cellar/avr-gcc@9/9.3.0_3/avr/include/util/delay.h ****     \endcode
  55:/opt/homebrew/Cellar/avr-gcc@9/9.3.0_3/avr/include/util/delay.h **** 
  56:/opt/homebrew/Cellar/avr-gcc@9/9.3.0_3/avr/include/util/delay.h ****     \note As an alternative method, it is possible to pass the
  57:/opt/homebrew/Cellar/avr-gcc@9/9.3.0_3/avr/include/util/delay.h ****     F_CPU macro down to the compiler from the Makefile.
  58:/opt/homebrew/Cellar/avr-gcc@9/9.3.0_3/avr/include/util/delay.h ****     Obviously, in that case, no \c \#define statement should be
  59:/opt/homebrew/Cellar/avr-gcc@9/9.3.0_3/avr/include/util/delay.h ****     used.
  60:/opt/homebrew/Cellar/avr-gcc@9/9.3.0_3/avr/include/util/delay.h **** 
  61:/opt/homebrew/Cellar/avr-gcc@9/9.3.0_3/avr/include/util/delay.h ****     The functions in this header file are wrappers around the basic
  62:/opt/homebrew/Cellar/avr-gcc@9/9.3.0_3/avr/include/util/delay.h ****     busy-wait functions from <util/delay_basic.h>.  They are meant as
  63:/opt/homebrew/Cellar/avr-gcc@9/9.3.0_3/avr/include/util/delay.h ****     convenience functions where actual time values can be specified
  64:/opt/homebrew/Cellar/avr-gcc@9/9.3.0_3/avr/include/util/delay.h ****     rather than a number of cycles to wait for.  The idea behind is
  65:/opt/homebrew/Cellar/avr-gcc@9/9.3.0_3/avr/include/util/delay.h ****     that compile-time constant expressions will be eliminated by
  66:/opt/homebrew/Cellar/avr-gcc@9/9.3.0_3/avr/include/util/delay.h ****     compiler optimization so floating-point expressions can be used
  67:/opt/homebrew/Cellar/avr-gcc@9/9.3.0_3/avr/include/util/delay.h ****     to calculate the number of delay cycles needed based on the CPU
  68:/opt/homebrew/Cellar/avr-gcc@9/9.3.0_3/avr/include/util/delay.h ****     frequency passed by the macro F_CPU.
  69:/opt/homebrew/Cellar/avr-gcc@9/9.3.0_3/avr/include/util/delay.h **** 
  70:/opt/homebrew/Cellar/avr-gcc@9/9.3.0_3/avr/include/util/delay.h ****     \note In order for these functions to work as intended, compiler
  71:/opt/homebrew/Cellar/avr-gcc@9/9.3.0_3/avr/include/util/delay.h ****     optimizations <em>must</em> be enabled, and the delay time
  72:/opt/homebrew/Cellar/avr-gcc@9/9.3.0_3/avr/include/util/delay.h ****     <em>must</em> be an expression that is a known constant at
  73:/opt/homebrew/Cellar/avr-gcc@9/9.3.0_3/avr/include/util/delay.h ****     compile-time.  If these requirements are not met, the resulting
  74:/opt/homebrew/Cellar/avr-gcc@9/9.3.0_3/avr/include/util/delay.h ****     delay will be much longer (and basically unpredictable), and
  75:/opt/homebrew/Cellar/avr-gcc@9/9.3.0_3/avr/include/util/delay.h ****     applications that otherwise do not use floating-point calculations
  76:/opt/homebrew/Cellar/avr-gcc@9/9.3.0_3/avr/include/util/delay.h ****     will experience severe code bloat by the floating-point library
  77:/opt/homebrew/Cellar/avr-gcc@9/9.3.0_3/avr/include/util/delay.h ****     routines linked into the application.
  78:/opt/homebrew/Cellar/avr-gcc@9/9.3.0_3/avr/include/util/delay.h **** 
  79:/opt/homebrew/Cellar/avr-gcc@9/9.3.0_3/avr/include/util/delay.h ****     The functions available allow the specification of microsecond, and
  80:/opt/homebrew/Cellar/avr-gcc@9/9.3.0_3/avr/include/util/delay.h ****     millisecond delays directly, using the application-supplied macro
  81:/opt/homebrew/Cellar/avr-gcc@9/9.3.0_3/avr/include/util/delay.h ****     F_CPU as the CPU clock frequency (in Hertz).
  82:/opt/homebrew/Cellar/avr-gcc@9/9.3.0_3/avr/include/util/delay.h **** 
  83:/opt/homebrew/Cellar/avr-gcc@9/9.3.0_3/avr/include/util/delay.h **** */
  84:/opt/homebrew/Cellar/avr-gcc@9/9.3.0_3/avr/include/util/delay.h **** 
  85:/opt/homebrew/Cellar/avr-gcc@9/9.3.0_3/avr/include/util/delay.h **** #if !defined(__DOXYGEN__)
  86:/opt/homebrew/Cellar/avr-gcc@9/9.3.0_3/avr/include/util/delay.h **** static __inline__ void _delay_us(double __us) __attribute__((__always_inline__));
  87:/opt/homebrew/Cellar/avr-gcc@9/9.3.0_3/avr/include/util/delay.h **** static __inline__ void _delay_ms(double __ms) __attribute__((__always_inline__));
  88:/opt/homebrew/Cellar/avr-gcc@9/9.3.0_3/avr/include/util/delay.h **** #endif
  89:/opt/homebrew/Cellar/avr-gcc@9/9.3.0_3/avr/include/util/delay.h **** 
  90:/opt/homebrew/Cellar/avr-gcc@9/9.3.0_3/avr/include/util/delay.h **** #ifndef F_CPU
  91:/opt/homebrew/Cellar/avr-gcc@9/9.3.0_3/avr/include/util/delay.h **** /* prevent compiler error by supplying a default */
  92:/opt/homebrew/Cellar/avr-gcc@9/9.3.0_3/avr/include/util/delay.h **** # warning "F_CPU not defined for <util/delay.h>"
  93:/opt/homebrew/Cellar/avr-gcc@9/9.3.0_3/avr/include/util/delay.h **** /** \ingroup util_delay
  94:/opt/homebrew/Cellar/avr-gcc@9/9.3.0_3/avr/include/util/delay.h ****     \def F_CPU
  95:/opt/homebrew/Cellar/avr-gcc@9/9.3.0_3/avr/include/util/delay.h ****     \brief CPU frequency in Hz
  96:/opt/homebrew/Cellar/avr-gcc@9/9.3.0_3/avr/include/util/delay.h **** 
  97:/opt/homebrew/Cellar/avr-gcc@9/9.3.0_3/avr/include/util/delay.h ****     The macro F_CPU specifies the CPU frequency to be considered by
  98:/opt/homebrew/Cellar/avr-gcc@9/9.3.0_3/avr/include/util/delay.h ****     the delay macros.  This macro is normally supplied by the
  99:/opt/homebrew/Cellar/avr-gcc@9/9.3.0_3/avr/include/util/delay.h ****     environment (e.g. from within a project header, or the project's
 100:/opt/homebrew/Cellar/avr-gcc@9/9.3.0_3/avr/include/util/delay.h ****     Makefile).  The value 1 MHz here is only provided as a "vanilla"
 101:/opt/homebrew/Cellar/avr-gcc@9/9.3.0_3/avr/include/util/delay.h ****     fallback if no such user-provided definition could be found.
 102:/opt/homebrew/Cellar/avr-gcc@9/9.3.0_3/avr/include/util/delay.h **** 
 103:/opt/homebrew/Cellar/avr-gcc@9/9.3.0_3/avr/include/util/delay.h ****     In terms of the delay functions, the CPU frequency can be given as
 104:/opt/homebrew/Cellar/avr-gcc@9/9.3.0_3/avr/include/util/delay.h ****     a floating-point constant (e.g. 3.6864E6 for 3.6864 MHz).
 105:/opt/homebrew/Cellar/avr-gcc@9/9.3.0_3/avr/include/util/delay.h ****     However, the macros in <util/setbaud.h> require it to be an
 106:/opt/homebrew/Cellar/avr-gcc@9/9.3.0_3/avr/include/util/delay.h ****     integer value.
 107:/opt/homebrew/Cellar/avr-gcc@9/9.3.0_3/avr/include/util/delay.h ****  */
 108:/opt/homebrew/Cellar/avr-gcc@9/9.3.0_3/avr/include/util/delay.h **** # define F_CPU 1000000UL
 109:/opt/homebrew/Cellar/avr-gcc@9/9.3.0_3/avr/include/util/delay.h **** #endif
 110:/opt/homebrew/Cellar/avr-gcc@9/9.3.0_3/avr/include/util/delay.h **** 
 111:/opt/homebrew/Cellar/avr-gcc@9/9.3.0_3/avr/include/util/delay.h **** #ifndef __OPTIMIZE__
 112:/opt/homebrew/Cellar/avr-gcc@9/9.3.0_3/avr/include/util/delay.h **** # warning "Compiler optimizations disabled; functions from <util/delay.h> won't work as designed"
 113:/opt/homebrew/Cellar/avr-gcc@9/9.3.0_3/avr/include/util/delay.h **** #endif
 114:/opt/homebrew/Cellar/avr-gcc@9/9.3.0_3/avr/include/util/delay.h **** 
 115:/opt/homebrew/Cellar/avr-gcc@9/9.3.0_3/avr/include/util/delay.h **** #if __HAS_DELAY_CYCLES && defined(__OPTIMIZE__) && \
 116:/opt/homebrew/Cellar/avr-gcc@9/9.3.0_3/avr/include/util/delay.h ****   !defined(__DELAY_BACKWARD_COMPATIBLE__) &&	   \
 117:/opt/homebrew/Cellar/avr-gcc@9/9.3.0_3/avr/include/util/delay.h ****   __STDC_HOSTED__
 118:/opt/homebrew/Cellar/avr-gcc@9/9.3.0_3/avr/include/util/delay.h **** #  include <math.h>
 119:/opt/homebrew/Cellar/avr-gcc@9/9.3.0_3/avr/include/util/delay.h **** #endif
 120:/opt/homebrew/Cellar/avr-gcc@9/9.3.0_3/avr/include/util/delay.h **** 
 121:/opt/homebrew/Cellar/avr-gcc@9/9.3.0_3/avr/include/util/delay.h **** /**
 122:/opt/homebrew/Cellar/avr-gcc@9/9.3.0_3/avr/include/util/delay.h ****    \ingroup util_delay
 123:/opt/homebrew/Cellar/avr-gcc@9/9.3.0_3/avr/include/util/delay.h **** 
 124:/opt/homebrew/Cellar/avr-gcc@9/9.3.0_3/avr/include/util/delay.h ****    Perform a delay of \c __ms milliseconds, using _delay_loop_2().
 125:/opt/homebrew/Cellar/avr-gcc@9/9.3.0_3/avr/include/util/delay.h **** 
 126:/opt/homebrew/Cellar/avr-gcc@9/9.3.0_3/avr/include/util/delay.h ****    The macro F_CPU is supposed to be defined to a
 127:/opt/homebrew/Cellar/avr-gcc@9/9.3.0_3/avr/include/util/delay.h ****    constant defining the CPU clock frequency (in Hertz).
 128:/opt/homebrew/Cellar/avr-gcc@9/9.3.0_3/avr/include/util/delay.h **** 
 129:/opt/homebrew/Cellar/avr-gcc@9/9.3.0_3/avr/include/util/delay.h ****    The maximal possible delay is 262.14 ms / F_CPU in MHz.
 130:/opt/homebrew/Cellar/avr-gcc@9/9.3.0_3/avr/include/util/delay.h **** 
 131:/opt/homebrew/Cellar/avr-gcc@9/9.3.0_3/avr/include/util/delay.h ****    When the user request delay which exceed the maximum possible one,
 132:/opt/homebrew/Cellar/avr-gcc@9/9.3.0_3/avr/include/util/delay.h ****    _delay_ms() provides a decreased resolution functionality. In this
 133:/opt/homebrew/Cellar/avr-gcc@9/9.3.0_3/avr/include/util/delay.h ****    mode _delay_ms() will work with a resolution of 1/10 ms, providing
 134:/opt/homebrew/Cellar/avr-gcc@9/9.3.0_3/avr/include/util/delay.h ****    delays up to 6.5535 seconds (independent from CPU frequency).  The
 135:/opt/homebrew/Cellar/avr-gcc@9/9.3.0_3/avr/include/util/delay.h ****    user will not be informed about decreased resolution.
 136:/opt/homebrew/Cellar/avr-gcc@9/9.3.0_3/avr/include/util/delay.h **** 
 137:/opt/homebrew/Cellar/avr-gcc@9/9.3.0_3/avr/include/util/delay.h ****    If the avr-gcc toolchain has __builtin_avr_delay_cycles()
 138:/opt/homebrew/Cellar/avr-gcc@9/9.3.0_3/avr/include/util/delay.h ****    support, maximal possible delay is 4294967.295 ms/ F_CPU in MHz. For
 139:/opt/homebrew/Cellar/avr-gcc@9/9.3.0_3/avr/include/util/delay.h ****    values greater than the maximal possible delay, overflows results in
 140:/opt/homebrew/Cellar/avr-gcc@9/9.3.0_3/avr/include/util/delay.h ****    no delay i.e., 0ms.
 141:/opt/homebrew/Cellar/avr-gcc@9/9.3.0_3/avr/include/util/delay.h **** 
 142:/opt/homebrew/Cellar/avr-gcc@9/9.3.0_3/avr/include/util/delay.h ****    Conversion of \c __ms into clock cycles may not always result in
 143:/opt/homebrew/Cellar/avr-gcc@9/9.3.0_3/avr/include/util/delay.h ****    integer.  By default, the clock cycles rounded up to next
 144:/opt/homebrew/Cellar/avr-gcc@9/9.3.0_3/avr/include/util/delay.h ****    integer. This ensures that the user gets at least \c __ms
 145:/opt/homebrew/Cellar/avr-gcc@9/9.3.0_3/avr/include/util/delay.h ****    microseconds of delay.
 146:/opt/homebrew/Cellar/avr-gcc@9/9.3.0_3/avr/include/util/delay.h **** 
 147:/opt/homebrew/Cellar/avr-gcc@9/9.3.0_3/avr/include/util/delay.h ****    Alternatively, by defining the macro \c __DELAY_ROUND_DOWN__, or
 148:/opt/homebrew/Cellar/avr-gcc@9/9.3.0_3/avr/include/util/delay.h ****    \c __DELAY_ROUND_CLOSEST__, before including this header file, the
 149:/opt/homebrew/Cellar/avr-gcc@9/9.3.0_3/avr/include/util/delay.h ****    algorithm can be made to round down, or round to closest integer,
 150:/opt/homebrew/Cellar/avr-gcc@9/9.3.0_3/avr/include/util/delay.h ****    respectively.
 151:/opt/homebrew/Cellar/avr-gcc@9/9.3.0_3/avr/include/util/delay.h **** 
 152:/opt/homebrew/Cellar/avr-gcc@9/9.3.0_3/avr/include/util/delay.h ****    \note
 153:/opt/homebrew/Cellar/avr-gcc@9/9.3.0_3/avr/include/util/delay.h **** 
 154:/opt/homebrew/Cellar/avr-gcc@9/9.3.0_3/avr/include/util/delay.h ****    The implementation of _delay_ms() based on
 155:/opt/homebrew/Cellar/avr-gcc@9/9.3.0_3/avr/include/util/delay.h ****    __builtin_avr_delay_cycles() is not backward compatible with older
 156:/opt/homebrew/Cellar/avr-gcc@9/9.3.0_3/avr/include/util/delay.h ****    implementations.  In order to get functionality backward compatible
 157:/opt/homebrew/Cellar/avr-gcc@9/9.3.0_3/avr/include/util/delay.h ****    with previous versions, the macro \c "__DELAY_BACKWARD_COMPATIBLE__"
 158:/opt/homebrew/Cellar/avr-gcc@9/9.3.0_3/avr/include/util/delay.h ****    must be defined before including this header file. Also, the
 159:/opt/homebrew/Cellar/avr-gcc@9/9.3.0_3/avr/include/util/delay.h ****    backward compatible algorithm will be chosen if the code is
 160:/opt/homebrew/Cellar/avr-gcc@9/9.3.0_3/avr/include/util/delay.h ****    compiled in a <em>freestanding environment</em> (GCC option
 161:/opt/homebrew/Cellar/avr-gcc@9/9.3.0_3/avr/include/util/delay.h ****    \c -ffreestanding), as the math functions required for rounding are
 162:/opt/homebrew/Cellar/avr-gcc@9/9.3.0_3/avr/include/util/delay.h ****    not available to the compiler then.
 163:/opt/homebrew/Cellar/avr-gcc@9/9.3.0_3/avr/include/util/delay.h **** 
 164:/opt/homebrew/Cellar/avr-gcc@9/9.3.0_3/avr/include/util/delay.h ****  */
 165:/opt/homebrew/Cellar/avr-gcc@9/9.3.0_3/avr/include/util/delay.h **** void
 166:/opt/homebrew/Cellar/avr-gcc@9/9.3.0_3/avr/include/util/delay.h **** _delay_ms(double __ms)
 290               		.loc 2 166 1 view .LVU66
 291               	.LBB10:
 167:/opt/homebrew/Cellar/avr-gcc@9/9.3.0_3/avr/include/util/delay.h **** {
 168:/opt/homebrew/Cellar/avr-gcc@9/9.3.0_3/avr/include/util/delay.h **** 	double __tmp ;
 292               		.loc 2 168 2 view .LVU67
 169:/opt/homebrew/Cellar/avr-gcc@9/9.3.0_3/avr/include/util/delay.h **** #if __HAS_DELAY_CYCLES && defined(__OPTIMIZE__) && \
 170:/opt/homebrew/Cellar/avr-gcc@9/9.3.0_3/avr/include/util/delay.h ****   !defined(__DELAY_BACKWARD_COMPATIBLE__) &&	   \
 171:/opt/homebrew/Cellar/avr-gcc@9/9.3.0_3/avr/include/util/delay.h ****   __STDC_HOSTED__
 172:/opt/homebrew/Cellar/avr-gcc@9/9.3.0_3/avr/include/util/delay.h **** 	uint32_t __ticks_dc;
 293               		.loc 2 172 2 view .LVU68
 173:/opt/homebrew/Cellar/avr-gcc@9/9.3.0_3/avr/include/util/delay.h **** 	extern void __builtin_avr_delay_cycles(unsigned long);
 294               		.loc 2 173 2 view .LVU69
 174:/opt/homebrew/Cellar/avr-gcc@9/9.3.0_3/avr/include/util/delay.h **** 	__tmp = ((F_CPU) / 1e3) * __ms;
 295               		.loc 2 174 2 view .LVU70
 175:/opt/homebrew/Cellar/avr-gcc@9/9.3.0_3/avr/include/util/delay.h **** 
 176:/opt/homebrew/Cellar/avr-gcc@9/9.3.0_3/avr/include/util/delay.h **** 	#if defined(__DELAY_ROUND_DOWN__)
 177:/opt/homebrew/Cellar/avr-gcc@9/9.3.0_3/avr/include/util/delay.h **** 		__ticks_dc = (uint32_t)fabs(__tmp);
 178:/opt/homebrew/Cellar/avr-gcc@9/9.3.0_3/avr/include/util/delay.h **** 
 179:/opt/homebrew/Cellar/avr-gcc@9/9.3.0_3/avr/include/util/delay.h **** 	#elif defined(__DELAY_ROUND_CLOSEST__)
 180:/opt/homebrew/Cellar/avr-gcc@9/9.3.0_3/avr/include/util/delay.h **** 		__ticks_dc = (uint32_t)(fabs(__tmp)+0.5);
 181:/opt/homebrew/Cellar/avr-gcc@9/9.3.0_3/avr/include/util/delay.h **** 
 182:/opt/homebrew/Cellar/avr-gcc@9/9.3.0_3/avr/include/util/delay.h **** 	#else
 183:/opt/homebrew/Cellar/avr-gcc@9/9.3.0_3/avr/include/util/delay.h **** 		//round up by default
 184:/opt/homebrew/Cellar/avr-gcc@9/9.3.0_3/avr/include/util/delay.h **** 		__ticks_dc = (uint32_t)(ceil(fabs(__tmp)));
 296               		.loc 2 184 3 view .LVU71
 185:/opt/homebrew/Cellar/avr-gcc@9/9.3.0_3/avr/include/util/delay.h **** 	#endif
 186:/opt/homebrew/Cellar/avr-gcc@9/9.3.0_3/avr/include/util/delay.h **** 
 187:/opt/homebrew/Cellar/avr-gcc@9/9.3.0_3/avr/include/util/delay.h **** 	__builtin_avr_delay_cycles(__ticks_dc);
 297               		.loc 2 187 2 view .LVU72
 298 00c0 8FE9      		ldi r24,lo8(3999)
 299 00c2 9FE0      		ldi r25,hi8(3999)
 300 00c4 0197      	1:	sbiw r24,1
 301 00c6 01F4      		brne 1b
 302 00c8 00C0      		rjmp .
 303 00ca 0000      		nop
 304               	.LVL30:
 305               		.loc 2 187 2 is_stmt 0 view .LVU73
 306               	.LBE10:
 307               	.LBE9:
 202:mcp2515.c     **** 	
 308               		.loc 1 202 2 is_stmt 1 view .LVU74
 309 00cc C09A      		sbi 0x18,0
 205:mcp2515.c     **** 	
 310               		.loc 1 205 2 view .LVU75
 311               	.LVL31:
 312               	.LBB11:
 313               	.LBI11:
 166:/opt/homebrew/Cellar/avr-gcc@9/9.3.0_3/avr/include/util/delay.h **** {
 314               		.loc 2 166 1 view .LVU76
 315               	.LBB12:
 168:/opt/homebrew/Cellar/avr-gcc@9/9.3.0_3/avr/include/util/delay.h **** #if __HAS_DELAY_CYCLES && defined(__OPTIMIZE__) && \
 316               		.loc 2 168 2 view .LVU77
 172:/opt/homebrew/Cellar/avr-gcc@9/9.3.0_3/avr/include/util/delay.h **** 	extern void __builtin_avr_delay_cycles(unsigned long);
 317               		.loc 2 172 2 view .LVU78
 173:/opt/homebrew/Cellar/avr-gcc@9/9.3.0_3/avr/include/util/delay.h **** 	__tmp = ((F_CPU) / 1e3) * __ms;
 318               		.loc 2 173 2 view .LVU79
 174:/opt/homebrew/Cellar/avr-gcc@9/9.3.0_3/avr/include/util/delay.h **** 
 319               		.loc 2 174 2 view .LVU80
 184:/opt/homebrew/Cellar/avr-gcc@9/9.3.0_3/avr/include/util/delay.h **** 	#endif
 320               		.loc 2 184 3 view .LVU81
 321               		.loc 2 187 2 view .LVU82
 322 00ce EFE3      		ldi r30,lo8(-25537)
 323 00d0 FCE9      		ldi r31,hi8(-25537)
 324 00d2 3197      	1:	sbiw r30,1
 325 00d4 01F4      		brne 1b
 326 00d6 00C0      		rjmp .
 327 00d8 0000      		nop
 328               	.LVL32:
 329               		.loc 2 187 2 is_stmt 0 view .LVU83
 330               	.LBE12:
 331               	.LBE11:
 208:mcp2515.c     **** 	spi_putc(SPI_WRITE);
 332               		.loc 1 208 2 is_stmt 1 view .LVU84
 333 00da C098      		cbi 0x18,0
 209:mcp2515.c     **** 	spi_putc(CNF3);
 334               		.loc 1 209 2 view .LVU85
 335 00dc 82E0      		ldi r24,lo8(2)
 336 00de 0E94 0000 		call spi_putc
 337               	.LVL33:
 210:mcp2515.c     **** 	for (uint8_t i=0; i<3 ;i++ ) {
 338               		.loc 1 210 2 view .LVU86
 339 00e2 88E2      		ldi r24,lo8(40)
 340 00e4 0E94 0000 		call spi_putc
 341               	.LVL34:
 211:mcp2515.c     **** 		spi_putc(pgm_read_byte(&_mcp2515_cnf[bitrate][i]));
 342               		.loc 1 211 2 view .LVU87
 343               	.LBB13:
 211:mcp2515.c     **** 		spi_putc(pgm_read_byte(&_mcp2515_cnf[bitrate][i]));
 344               		.loc 1 211 7 view .LVU88
 211:mcp2515.c     **** 		spi_putc(pgm_read_byte(&_mcp2515_cnf[bitrate][i]));
 345               		.loc 1 211 20 view .LVU89
 346 00e8 EC2F      		mov r30,r28
 347 00ea F0E0      		ldi r31,0
 348 00ec EF01      		movw r28,r30
 349               	.LVL35:
 211:mcp2515.c     **** 		spi_putc(pgm_read_byte(&_mcp2515_cnf[bitrate][i]));
 350               		.loc 1 211 20 is_stmt 0 view .LVU90
 351 00ee CC0F      		lsl r28
 352 00f0 DD1F      		rol r29
 353 00f2 CE0F      		add r28,r30
 354 00f4 DF1F      		adc r29,r31
 355 00f6 CE01      		movw r24,r28
 356 00f8 8050      		subi r24,lo8(-(_mcp2515_cnf))
 357 00fa 9040      		sbci r25,hi8(-(_mcp2515_cnf))
 358 00fc 7C01      		movw r14,r24
 359               	.LBE13:
 210:mcp2515.c     **** 	for (uint8_t i=0; i<3 ;i++ ) {
 360               		.loc 1 210 2 view .LVU91
 361 00fe 13E0      		ldi r17,lo8(3)
 362               	.LVL36:
 363               	.L8:
 364               	.LBB15:
 212:mcp2515.c     **** 	}
 365               		.loc 1 212 3 is_stmt 1 discriminator 3 view .LVU92
 366               	.LBB14:
 212:mcp2515.c     **** 	}
 367               		.loc 1 212 12 discriminator 3 view .LVU93
 212:mcp2515.c     **** 	}
 368               		.loc 1 212 12 discriminator 3 view .LVU94
 212:mcp2515.c     **** 	}
 369               		.loc 1 212 12 discriminator 3 view .LVU95
 370 0100 F701      		movw r30,r14
 371               	/* #APP */
 372               	 ;  212 "mcp2515.c" 1
 373 0102 8491      		lpm r24, Z
 374               		
 375               	 ;  0 "" 2
 376               	.LVL37:
 212:mcp2515.c     **** 	}
 377               		.loc 1 212 12 discriminator 3 view .LVU96
 378               	/* #NOAPP */
 379               	.LBE14:
 212:mcp2515.c     **** 	}
 380               		.loc 1 212 3 is_stmt 0 discriminator 3 view .LVU97
 381 0104 0E94 0000 		call spi_putc
 382               	.LVL38:
 211:mcp2515.c     **** 		spi_putc(pgm_read_byte(&_mcp2515_cnf[bitrate][i]));
 383               		.loc 1 211 25 is_stmt 1 discriminator 3 view .LVU98
 211:mcp2515.c     **** 		spi_putc(pgm_read_byte(&_mcp2515_cnf[bitrate][i]));
 384               		.loc 1 211 20 discriminator 3 view .LVU99
 385 0108 1150      		subi r17,lo8(-(-1))
 386 010a FFEF      		ldi r31,-1
 387 010c EF1A      		sub r14,r31
 388 010e FF0A      		sbc r15,r31
 389               	.LVL39:
 211:mcp2515.c     **** 		spi_putc(pgm_read_byte(&_mcp2515_cnf[bitrate][i]));
 390               		.loc 1 211 2 is_stmt 0 discriminator 3 view .LVU100
 391 0110 1111      		cpse r17,__zero_reg__
 392 0112 00C0      		rjmp .L8
 393               	.LBE15:
 215:mcp2515.c     **** 	SET(MCP2515_CS);
 394               		.loc 1 215 2 is_stmt 1 view .LVU101
 395 0114 83E0      		ldi r24,lo8(3)
 396 0116 0E94 0000 		call spi_putc
 397               	.LVL40:
 216:mcp2515.c     **** 	
 398               		.loc 1 216 2 view .LVU102
 399 011a C09A      		sbi 0x18,0
 219:mcp2515.c     **** 	
 400               		.loc 1 219 2 view .LVU103
 401 011c 60E0      		ldi r22,0
 402 011e 8DE0      		ldi r24,lo8(13)
 403 0120 0E94 0000 		call mcp2515_write_register
 404               	.LVL41:
 222:mcp2515.c     **** 		SET(MCP2515_INT);
 405               		.loc 1 222 3 view .LVU104
 406 0124 B998      		cbi 0x17,1
 223:mcp2515.c     **** 	#endif
 407               		.loc 1 223 3 view .LVU105
 408 0126 C19A      		sbi 0x18,1
 242:mcp2515.c     **** 		#endif
 409               		.loc 1 242 4 view .LVU106
 410 0128 60E0      		ldi r22,0
 411 012a 8CE0      		ldi r24,lo8(12)
 412 012c 0E94 0000 		call mcp2515_write_register
 413               	.LVL42:
 248:mcp2515.c     **** 	if (mcp2515_read_register(CNF2) != pgm_read_byte(&_mcp2515_cnf[bitrate][1])) {
 414               		.loc 1 248 2 view .LVU107
 249:mcp2515.c     **** 		error = true;
 415               		.loc 1 249 2 view .LVU108
 249:mcp2515.c     **** 		error = true;
 416               		.loc 1 249 6 is_stmt 0 view .LVU109
 417 0130 89E2      		ldi r24,lo8(41)
 418 0132 0E94 0000 		call mcp2515_read_register
 419               	.LVL43:
 420 0136 182F      		mov r17,r24
 421               	.LBB16:
 249:mcp2515.c     **** 		error = true;
 422               		.loc 1 249 37 is_stmt 1 view .LVU110
 423               	.LVL44:
 249:mcp2515.c     **** 		error = true;
 424               		.loc 1 249 37 view .LVU111
 249:mcp2515.c     **** 		error = true;
 425               		.loc 1 249 37 view .LVU112
 426 0138 C050      		subi r28,lo8(-(_mcp2515_cnf+1))
 427 013a D040      		sbci r29,hi8(-(_mcp2515_cnf+1))
 428               	.LVL45:
 249:mcp2515.c     **** 		error = true;
 429               		.loc 1 249 37 is_stmt 0 view .LVU113
 430 013c FE01      		movw r30,r28
 431               	/* #APP */
 432               	 ;  249 "mcp2515.c" 1
 433 013e C491      		lpm r28, Z
 434               		
 435               	 ;  0 "" 2
 436               	.LVL46:
 249:mcp2515.c     **** 		error = true;
 437               		.loc 1 249 37 is_stmt 1 view .LVU114
 249:mcp2515.c     **** 		error = true;
 438               		.loc 1 249 37 is_stmt 0 view .LVU115
 439               	/* #NOAPP */
 440               	.LBE16:
 255:mcp2515.c     **** 	
 441               		.loc 1 255 2 is_stmt 1 view .LVU116
 442 0140 60E0      		ldi r22,0
 443 0142 8FE0      		ldi r24,lo8(15)
 444 0144 0E94 0000 		call mcp2515_write_register
 445               	.LVL47:
 257:mcp2515.c     **** 		return false;
 446               		.loc 1 257 2 view .LVU117
 257:mcp2515.c     **** 		return false;
 447               		.loc 1 257 5 is_stmt 0 view .LVU118
 448 0148 1C13      		cpse r17,r28
 449 014a 00C0      		rjmp .L9
 450               	.L10:
 264:mcp2515.c     **** 		
 451               		.loc 1 264 3 is_stmt 1 discriminator 1 view .LVU119
 262:mcp2515.c     **** 			// warten bis der neue Modus uebernommen wurde
 452               		.loc 1 262 9 discriminator 1 view .LVU120
 262:mcp2515.c     **** 			// warten bis der neue Modus uebernommen wurde
 453               		.loc 1 262 11 is_stmt 0 discriminator 1 view .LVU121
 454 014c 8EE0      		ldi r24,lo8(14)
 455 014e 0E94 0000 		call mcp2515_read_register
 456               	.LVL48:
 262:mcp2515.c     **** 			// warten bis der neue Modus uebernommen wurde
 457               		.loc 1 262 9 discriminator 1 view .LVU122
 458 0152 807E      		andi r24,lo8(-32)
 459 0154 01F4      		brne .L10
 266:mcp2515.c     **** 	}
 460               		.loc 1 266 10 view .LVU123
 461 0156 81E0      		ldi r24,lo8(1)
 462 0158 00C0      		rjmp .L5
 463               		.cfi_endproc
 464               	.LFE23:
 466               	.global	_mcp2515_cnf
 467               		.section	.progmem.data,"a",@progbits
 470               	_mcp2515_cnf:
 471 0000 04B6 E7   		.ascii	"\004\266\347"
 472 0003 04B6 D3   		.ascii	"\004\266\323"
 473 0006 04B6 C7   		.ascii	"\004\266\307"
 474 0009 04B6 C3   		.ascii	"\004\266\303"
 475 000c 0290 07   		.ascii	"\002\220\007"
 476 000f 03AC 81   		.ascii	"\003\254\201"
 477 0012 03AC 80   		.ascii	"\003\254\200"
 478 0015 0290 00   		.string	"\002\220"
 479               		.text
 480               	.Letext0:
 481               		.file 3 "/opt/homebrew/Cellar/avr-gcc@9/9.3.0_3/avr/include/stdint.h"
 482               		.file 4 "../can.h"
 483               		.file 5 "spi.h"