   1               		.file	"mcp2515_get_message.c"
   2               	__SP_H__ = 0x3e
   3               	__SP_L__ = 0x3d
   4               	__SREG__ = 0x3f
   5               	__tmp_reg__ = 0
   6               	__zero_reg__ = 1
   7               		.text
   8               	.Ltext0:
   9               		.cfi_sections	.debug_frame
  10               	.global	can_get_message
  12               	can_get_message:
  13               	.LVL0:
  14               	.LFB19:
  15               		.file 1 "mcp2515_get_message.c"
   1:mcp2515_get_message.c **** // ----------------------------------------------------------------------------
   2:mcp2515_get_message.c **** /*
   3:mcp2515_get_message.c ****  * Copyright (c) 2007 Fabian Greif, Roboterclub Aachen e.V.
   4:mcp2515_get_message.c ****  *  All rights reserved.
   5:mcp2515_get_message.c ****  *
   6:mcp2515_get_message.c ****  * Redistribution and use in source and binary forms, with or without
   7:mcp2515_get_message.c ****  * modification, are permitted provided that the following conditions
   8:mcp2515_get_message.c ****  * are met:
   9:mcp2515_get_message.c ****  * 1. Redistributions of source code must retain the above copyright
  10:mcp2515_get_message.c ****  *    notice, this list of conditions and the following disclaimer.
  11:mcp2515_get_message.c ****  * 2. Redistributions in binary form must reproduce the above copyright
  12:mcp2515_get_message.c ****  *    notice, this list of conditions and the following disclaimer in the
  13:mcp2515_get_message.c ****  *    documentation and/or other materials provided with the distribution.
  14:mcp2515_get_message.c ****  *
  15:mcp2515_get_message.c ****  * THIS SOFTWARE IS PROVIDED BY THE AUTHOR AND CONTRIBUTORS ``AS IS'' AND
  16:mcp2515_get_message.c ****  * ANY EXPRESS OR IMPLIED WARRANTIES, INCLUDING, BUT NOT LIMITED TO, THE
  17:mcp2515_get_message.c ****  * IMPLIED WARRANTIES OF MERCHANTABILITY AND FITNESS FOR A PARTICULAR PURPOSE
  18:mcp2515_get_message.c ****  * ARE DISCLAIMED.  IN NO EVENT SHALL THE REGENTS OR CONTRIBUTORS BE LIABLE
  19:mcp2515_get_message.c ****  * FOR ANY DIRECT, INDIRECT, INCIDENTAL, SPECIAL, EXEMPLARY, OR CONSEQUENTIAL
  20:mcp2515_get_message.c ****  * DAMAGES (INCLUDING, BUT NOT LIMITED TO, PROCUREMENT OF SUBSTITUTE GOODS
  21:mcp2515_get_message.c ****  * OR SERVICES; LOSS OF USE, DATA, OR PROFITS; OR BUSINESS INTERRUPTION)
  22:mcp2515_get_message.c ****  * HOWEVER CAUSED AND ON ANY THEORY OF LIABILITY, WHETHER IN CONTRACT, STRICT
  23:mcp2515_get_message.c ****  * LIABILITY, OR TORT (INCLUDING NEGLIGENCE OR OTHERWISE) ARISING IN ANY WAY
  24:mcp2515_get_message.c ****  * OUT OF THE USE OF THIS SOFTWARE, EVEN IF ADVISED OF THE POSSIBILITY OF
  25:mcp2515_get_message.c ****  * SUCH DAMAGE.
  26:mcp2515_get_message.c ****  *
  27:mcp2515_get_message.c ****  * $Id: mcp2515_get_message.c 7224 2009-01-25 20:19:32Z fabian $
  28:mcp2515_get_message.c ****  */
  29:mcp2515_get_message.c **** // ----------------------------------------------------------------------------
  30:mcp2515_get_message.c **** 
  31:mcp2515_get_message.c **** #include "mcp2515_private.h"
  32:mcp2515_get_message.c **** #ifdef	SUPPORT_FOR_MCP2515__
  33:mcp2515_get_message.c **** 
  34:mcp2515_get_message.c **** // ----------------------------------------------------------------------------
  35:mcp2515_get_message.c **** 
  36:mcp2515_get_message.c **** uint8_t mcp2515_get_message(can_t *msg)
  37:mcp2515_get_message.c **** {
  16               		.loc 1 37 1 view -0
  17               		.cfi_startproc
  18               		.loc 1 37 1 is_stmt 0 view .LVU1
  19 0000 EF92      		push r14
  20               	.LCFI0:
  21               		.cfi_def_cfa_offset 3
  22               		.cfi_offset 14, -2
  23 0002 FF92      		push r15
  24               	.LCFI1:
  25               		.cfi_def_cfa_offset 4
  26               		.cfi_offset 15, -3
  27 0004 0F93      		push r16
  28               	.LCFI2:
  29               		.cfi_def_cfa_offset 5
  30               		.cfi_offset 16, -4
  31 0006 1F93      		push r17
  32               	.LCFI3:
  33               		.cfi_def_cfa_offset 6
  34               		.cfi_offset 17, -5
  35 0008 CF93      		push r28
  36               	.LCFI4:
  37               		.cfi_def_cfa_offset 7
  38               		.cfi_offset 28, -6
  39 000a DF93      		push r29
  40               	.LCFI5:
  41               		.cfi_def_cfa_offset 8
  42               		.cfi_offset 29, -7
  43               	/* prologue: function */
  44               	/* frame size = 0 */
  45               	/* stack size = 6 */
  46               	.L__stack_usage = 6
  47 000c EC01      		movw r28,r24
  38:mcp2515_get_message.c **** 	uint8_t addr;
  48               		.loc 1 38 2 is_stmt 1 view .LVU2
  39:mcp2515_get_message.c **** 	
  40:mcp2515_get_message.c **** 	#ifdef	RXnBF_FUNKTION
  41:mcp2515_get_message.c **** 		if (!IS_SET(MCP2515_RX0BF))
  42:mcp2515_get_message.c **** 			addr = SPI_READ_RX;
  43:mcp2515_get_message.c **** 		else if (!IS_SET(MCP2515_RX1BF))
  44:mcp2515_get_message.c **** 			addr = SPI_READ_RX | 0x04;
  45:mcp2515_get_message.c **** 		else
  46:mcp2515_get_message.c **** 			return 0;
  47:mcp2515_get_message.c **** 	#else
  48:mcp2515_get_message.c **** 		// read status
  49:mcp2515_get_message.c **** 		uint8_t status = mcp2515_read_status(SPI_RX_STATUS);
  49               		.loc 1 49 3 view .LVU3
  50               		.loc 1 49 20 is_stmt 0 view .LVU4
  51 000e 80EB      		ldi r24,lo8(-80)
  52               	.LVL1:
  53               		.loc 1 49 20 view .LVU5
  54 0010 0E94 0000 		call mcp2515_read_status
  55               	.LVL2:
  56 0014 182F      		mov r17,r24
  57               	.LVL3:
  50:mcp2515_get_message.c **** 		
  51:mcp2515_get_message.c **** 		if (_bit_is_set(status,6)) {
  58               		.loc 1 51 3 is_stmt 1 view .LVU6
  59               		.loc 1 51 6 is_stmt 0 view .LVU7
  60 0016 082F      		mov r16,r24
  61 0018 0074      		andi r16,lo8(64)
  62 001a 86FD      		sbrc r24,6
  63 001c 00C0      		rjmp .L10
  52:mcp2515_get_message.c **** 			// message in buffer 0
  53:mcp2515_get_message.c **** 			addr = SPI_READ_RX;
  54:mcp2515_get_message.c **** 		}
  55:mcp2515_get_message.c **** 		else if (_bit_is_set(status,7)) {
  64               		.loc 1 55 8 is_stmt 1 view .LVU8
  56:mcp2515_get_message.c **** 			// message in buffer 1
  57:mcp2515_get_message.c **** 			addr = SPI_READ_RX | 0x04;
  65               		.loc 1 57 9 is_stmt 0 view .LVU9
  66 001e 84E9      		ldi r24,lo8(-108)
  55:mcp2515_get_message.c **** 			// message in buffer 1
  67               		.loc 1 55 11 view .LVU10
  68 0020 17FD      		sbrc r17,7
  69 0022 00C0      		rjmp .L2
  70               	.LVL4:
  71               	.L1:
  58:mcp2515_get_message.c **** 		}
  59:mcp2515_get_message.c **** 		else {
  60:mcp2515_get_message.c **** 			// Error: no message available
  61:mcp2515_get_message.c **** 			return 0;
  62:mcp2515_get_message.c **** 		}
  63:mcp2515_get_message.c **** 	#endif
  64:mcp2515_get_message.c **** 	
  65:mcp2515_get_message.c **** 	RESET(MCP2515_CS);
  66:mcp2515_get_message.c **** 	spi_putc(addr);
  67:mcp2515_get_message.c **** 	
  68:mcp2515_get_message.c **** 	// CAN ID auslesen und ueberpruefen
  69:mcp2515_get_message.c **** 	uint8_t tmp = mcp2515_read_id(&msg->id);
  70:mcp2515_get_message.c **** 	#if SUPPORT_EXTENDED_CANID
  71:mcp2515_get_message.c **** 		msg->flags.extended = tmp & 0x01;
  72:mcp2515_get_message.c **** 	#else
  73:mcp2515_get_message.c **** 		if (tmp & 0x01) {
  74:mcp2515_get_message.c **** 			// Nachrichten mit extended ID verwerfen
  75:mcp2515_get_message.c **** 			SET(MCP2515_CS);
  76:mcp2515_get_message.c **** 			#ifdef	RXnBF_FUNKTION
  77:mcp2515_get_message.c **** 			if (!IS_SET(MCP2515_RX0BF))
  78:mcp2515_get_message.c **** 			#else
  79:mcp2515_get_message.c **** 			if (_bit_is_set(status, 6))
  80:mcp2515_get_message.c **** 			#endif
  81:mcp2515_get_message.c **** 				mcp2515_bit_modify(CANINTF, (1<<RX0IF), 0);
  82:mcp2515_get_message.c **** 			else
  83:mcp2515_get_message.c **** 				mcp2515_bit_modify(CANINTF, (1<<RX1IF), 0);
  84:mcp2515_get_message.c **** 			
  85:mcp2515_get_message.c **** 			return 0;
  86:mcp2515_get_message.c **** 		}
  87:mcp2515_get_message.c **** 	#endif
  88:mcp2515_get_message.c **** 	
  89:mcp2515_get_message.c **** 	// read DLC
  90:mcp2515_get_message.c **** 	uint8_t length = spi_putc(0xff);
  91:mcp2515_get_message.c **** 	#ifdef RXnBF_FUNKTION
  92:mcp2515_get_message.c **** 		if (!(tmp & 0x01))
  93:mcp2515_get_message.c **** 			msg->flags.rtr = (tmp & 0x02) ? 1 : 0;
  94:mcp2515_get_message.c **** 		else
  95:mcp2515_get_message.c **** 			msg->flags.rtr = (length & (1<<RTR)) ? 1 : 0;
  96:mcp2515_get_message.c **** 	#else
  97:mcp2515_get_message.c **** 		msg->flags.rtr = (_bit_is_set(status, 3)) ? 1 : 0;
  98:mcp2515_get_message.c **** 	#endif
  99:mcp2515_get_message.c **** 	
 100:mcp2515_get_message.c **** 	length &= 0x0f;
 101:mcp2515_get_message.c **** 	msg->length = length;
 102:mcp2515_get_message.c **** 	// read data
 103:mcp2515_get_message.c **** 	for (uint8_t i=0;i<length;i++) {
 104:mcp2515_get_message.c **** 		msg->data[i] = spi_putc(0xff);
 105:mcp2515_get_message.c **** 	}
 106:mcp2515_get_message.c **** 	SET(MCP2515_CS);
 107:mcp2515_get_message.c **** 	
 108:mcp2515_get_message.c **** 	// clear interrupt flag
 109:mcp2515_get_message.c **** 	#ifdef RXnBF_FUNKTION
 110:mcp2515_get_message.c **** 	if (!IS_SET(MCP2515_RX0BF))
 111:mcp2515_get_message.c **** 	#else
 112:mcp2515_get_message.c **** 	if (_bit_is_set(status, 6))
 113:mcp2515_get_message.c **** 	#endif
 114:mcp2515_get_message.c **** 		mcp2515_bit_modify(CANINTF, (1<<RX0IF), 0);
 115:mcp2515_get_message.c **** 	else
 116:mcp2515_get_message.c **** 		mcp2515_bit_modify(CANINTF, (1<<RX1IF), 0);
 117:mcp2515_get_message.c **** 	
 118:mcp2515_get_message.c **** 	CAN_INDICATE_RX_TRAFFIC_FUNCTION;
 119:mcp2515_get_message.c **** 	
 120:mcp2515_get_message.c **** 	#ifdef RXnBF_FUNKTION
 121:mcp2515_get_message.c **** 		return 1;
 122:mcp2515_get_message.c **** 	#else
 123:mcp2515_get_message.c **** 		return (status & 0x07) + 1;
 124:mcp2515_get_message.c **** 	#endif
 125:mcp2515_get_message.c **** }
  72               		.loc 1 125 1 view .LVU11
  73 0024 802F      		mov r24,r16
  74               	/* epilogue start */
  75 0026 DF91      		pop r29
  76 0028 CF91      		pop r28
  77 002a 1F91      		pop r17
  78 002c 0F91      		pop r16
  79 002e FF90      		pop r15
  80 0030 EF90      		pop r14
  81 0032 0895      		ret
  82               	.LVL5:
  83               	.L10:
  53:mcp2515_get_message.c **** 		}
  84               		.loc 1 53 9 view .LVU12
  85 0034 80E9      		ldi r24,lo8(-112)
  86               	.L2:
  87               	.LVL6:
  65:mcp2515_get_message.c **** 	spi_putc(addr);
  88               		.loc 1 65 2 is_stmt 1 view .LVU13
  89 0036 C098      		cbi 0x18,0
  66:mcp2515_get_message.c **** 	
  90               		.loc 1 66 2 view .LVU14
  91 0038 0E94 0000 		call spi_putc
  92               	.LVL7:
  69:mcp2515_get_message.c **** 	#if SUPPORT_EXTENDED_CANID
  93               		.loc 1 69 2 view .LVU15
  69:mcp2515_get_message.c **** 	#if SUPPORT_EXTENDED_CANID
  94               		.loc 1 69 16 is_stmt 0 view .LVU16
  95 003c CE01      		movw r24,r28
  96 003e 0E94 0000 		call mcp2515_read_id
  97               	.LVL8:
  73:mcp2515_get_message.c **** 			// Nachrichten mit extended ID verwerfen
  98               		.loc 1 73 3 is_stmt 1 view .LVU17
  73:mcp2515_get_message.c **** 			// Nachrichten mit extended ID verwerfen
  99               		.loc 1 73 6 is_stmt 0 view .LVU18
 100 0042 982F      		mov r25,r24
 101 0044 9170      		andi r25,lo8(1)
 102 0046 E92E      		mov r14,r25
 103 0048 80FF      		sbrs r24,0
 104 004a 00C0      		rjmp .L4
  75:mcp2515_get_message.c **** 			#ifdef	RXnBF_FUNKTION
 105               		.loc 1 75 4 is_stmt 1 view .LVU19
 106 004c C09A      		sbi 0x18,0
  79:mcp2515_get_message.c **** 			#endif
 107               		.loc 1 79 4 view .LVU20
  81:mcp2515_get_message.c **** 			else
 108               		.loc 1 81 5 is_stmt 0 view .LVU21
 109 004e 40E0      		ldi r20,0
  79:mcp2515_get_message.c **** 			#endif
 110               		.loc 1 79 7 view .LVU22
 111 0050 0023      		tst r16
 112 0052 01F0      		breq .L5
  81:mcp2515_get_message.c **** 			else
 113               		.loc 1 81 5 is_stmt 1 view .LVU23
 114 0054 61E0      		ldi r22,lo8(1)
 115 0056 8CE2      		ldi r24,lo8(44)
 116               	.LVL9:
  81:mcp2515_get_message.c **** 			else
 117               		.loc 1 81 5 is_stmt 0 view .LVU24
 118 0058 0E94 0000 		call mcp2515_bit_modify
 119               	.LVL10:
  85:mcp2515_get_message.c **** 		}
 120               		.loc 1 85 11 view .LVU25
 121 005c 00E0      		ldi r16,0
 122 005e 00C0      		rjmp .L1
 123               	.LVL11:
 124               	.L5:
  83:mcp2515_get_message.c **** 			
 125               		.loc 1 83 5 is_stmt 1 view .LVU26
 126 0060 62E0      		ldi r22,lo8(2)
 127 0062 8CE2      		ldi r24,lo8(44)
 128               	.LVL12:
  83:mcp2515_get_message.c **** 			
 129               		.loc 1 83 5 is_stmt 0 view .LVU27
 130 0064 0E94 0000 		call mcp2515_bit_modify
 131               	.LVL13:
 132 0068 00C0      		rjmp .L1
 133               	.LVL14:
 134               	.L4:
  90:mcp2515_get_message.c **** 	#ifdef RXnBF_FUNKTION
 135               		.loc 1 90 2 is_stmt 1 view .LVU28
  90:mcp2515_get_message.c **** 	#ifdef RXnBF_FUNKTION
 136               		.loc 1 90 19 is_stmt 0 view .LVU29
 137 006a 8FEF      		ldi r24,lo8(-1)
 138               	.LVL15:
  90:mcp2515_get_message.c **** 	#ifdef RXnBF_FUNKTION
 139               		.loc 1 90 19 view .LVU30
 140 006c 0E94 0000 		call spi_putc
 141               	.LVL16:
  97:mcp2515_get_message.c **** 	#endif
 142               		.loc 1 97 3 is_stmt 1 view .LVU31
  97:mcp2515_get_message.c **** 	#endif
 143               		.loc 1 97 18 is_stmt 0 view .LVU32
 144 0070 9A81      		ldd r25,Y+2
 145 0072 13FB      		bst r17,3
 146 0074 90F9      		bld r25,0
 147 0076 9A83      		std Y+2,r25
 100:mcp2515_get_message.c **** 	msg->length = length;
 148               		.loc 1 100 2 is_stmt 1 view .LVU33
 100:mcp2515_get_message.c **** 	msg->length = length;
 149               		.loc 1 100 9 is_stmt 0 view .LVU34
 150 0078 8F70      		andi r24,lo8(15)
 151               	.LVL17:
 100:mcp2515_get_message.c **** 	msg->length = length;
 152               		.loc 1 100 9 view .LVU35
 153 007a F82E      		mov r15,r24
 154               	.LVL18:
 101:mcp2515_get_message.c **** 	// read data
 155               		.loc 1 101 2 is_stmt 1 view .LVU36
 101:mcp2515_get_message.c **** 	// read data
 156               		.loc 1 101 14 is_stmt 0 view .LVU37
 157 007c 8B83      		std Y+3,r24
 103:mcp2515_get_message.c **** 		msg->data[i] = spi_putc(0xff);
 158               		.loc 1 103 2 is_stmt 1 view .LVU38
 159               	.LBB2:
 103:mcp2515_get_message.c **** 		msg->data[i] = spi_putc(0xff);
 160               		.loc 1 103 7 view .LVU39
 161               	.LVL19:
 103:mcp2515_get_message.c **** 		msg->data[i] = spi_putc(0xff);
 162               		.loc 1 103 7 is_stmt 0 view .LVU40
 163 007e 2496      		adiw r28,4
 164               	.LVL20:
 165               	.L6:
 103:mcp2515_get_message.c **** 		msg->data[i] = spi_putc(0xff);
 166               		.loc 1 103 19 is_stmt 1 discriminator 1 view .LVU41
 103:mcp2515_get_message.c **** 		msg->data[i] = spi_putc(0xff);
 167               		.loc 1 103 2 is_stmt 0 discriminator 1 view .LVU42
 168 0080 EF10      		cpse r14,r15
 169 0082 00C0      		rjmp .L7
 170               	.LBE2:
 106:mcp2515_get_message.c **** 	
 171               		.loc 1 106 2 is_stmt 1 view .LVU43
 172 0084 C09A      		sbi 0x18,0
 112:mcp2515_get_message.c **** 	#endif
 173               		.loc 1 112 2 view .LVU44
 114:mcp2515_get_message.c **** 	else
 174               		.loc 1 114 3 is_stmt 0 view .LVU45
 175 0086 40E0      		ldi r20,0
 176 0088 61E0      		ldi r22,lo8(1)
 112:mcp2515_get_message.c **** 	#endif
 177               		.loc 1 112 5 view .LVU46
 178 008a 0111      		cpse r16,__zero_reg__
 179 008c 00C0      		rjmp .L11
 116:mcp2515_get_message.c **** 	
 180               		.loc 1 116 3 is_stmt 1 view .LVU47
 181 008e 62E0      		ldi r22,lo8(2)
 182               	.L11:
 183 0090 8CE2      		ldi r24,lo8(44)
 184 0092 0E94 0000 		call mcp2515_bit_modify
 185               	.LVL21:
 118:mcp2515_get_message.c **** 	
 186               		.loc 1 118 34 view .LVU48
 123:mcp2515_get_message.c **** 	#endif
 187               		.loc 1 123 3 view .LVU49
 123:mcp2515_get_message.c **** 	#endif
 188               		.loc 1 123 18 is_stmt 0 view .LVU50
 189 0096 1770      		andi r17,lo8(7)
 190               	.LVL22:
 123:mcp2515_get_message.c **** 	#endif
 191               		.loc 1 123 26 view .LVU51
 192 0098 01E0      		ldi r16,lo8(1)
 193 009a 010F      		add r16,r17
 194 009c 00C0      		rjmp .L1
 195               	.LVL23:
 196               	.L7:
 197               	.LBB3:
 104:mcp2515_get_message.c **** 	}
 198               		.loc 1 104 3 is_stmt 1 discriminator 3 view .LVU52
 104:mcp2515_get_message.c **** 	}
 199               		.loc 1 104 18 is_stmt 0 discriminator 3 view .LVU53
 200 009e 8FEF      		ldi r24,lo8(-1)
 201 00a0 0E94 0000 		call spi_putc
 202               	.LVL24:
 104:mcp2515_get_message.c **** 	}
 203               		.loc 1 104 16 discriminator 3 view .LVU54
 204 00a4 8993      		st Y+,r24
 103:mcp2515_get_message.c **** 		msg->data[i] = spi_putc(0xff);
 205               		.loc 1 103 28 is_stmt 1 discriminator 3 view .LVU55
 103:mcp2515_get_message.c **** 		msg->data[i] = spi_putc(0xff);
 206               		.loc 1 103 29 is_stmt 0 discriminator 3 view .LVU56
 207 00a6 E394      		inc r14
 208               	.LVL25:
 103:mcp2515_get_message.c **** 		msg->data[i] = spi_putc(0xff);
 209               		.loc 1 103 29 discriminator 3 view .LVU57
 210 00a8 00C0      		rjmp .L6
 211               	.LBE3:
 212               		.cfi_endproc
 213               	.LFE19:
 215               	.Letext0:
 216               		.file 2 "/opt/homebrew/Cellar/avr-gcc@9/9.3.0_3/avr/include/stdint.h"
 217               		.file 3 "../can.h"
 218               		.file 4 "spi.h"
 219               		.file 5 "mcp2515_private.h"