   1               		.file	"mcp2515_static_filter.c"
   2               	__SP_H__ = 0x3e
   3               	__SP_L__ = 0x3d
   4               	__SREG__ = 0x3f
   5               	__tmp_reg__ = 0
   6               	__zero_reg__ = 1
   7               		.text
   8               	.Ltext0:
   9               		.cfi_sections	.debug_frame
  10               	.global	can_static_filter
  12               	can_static_filter:
  13               	.LVL0:
  14               	.LFB19:
  15               		.file 1 "mcp2515_static_filter.c"
   1:mcp2515_static_filter.c **** // ----------------------------------------------------------------------------
   2:mcp2515_static_filter.c **** /*
   3:mcp2515_static_filter.c ****  * Copyright (c) 2007 Fabian Greif, Roboterclub Aachen e.V.
   4:mcp2515_static_filter.c ****  *  All rights reserved.
   5:mcp2515_static_filter.c ****  *
   6:mcp2515_static_filter.c ****  * Redistribution and use in source and binary forms, with or without
   7:mcp2515_static_filter.c ****  * modification, are permitted provided that the following conditions
   8:mcp2515_static_filter.c ****  * are met:
   9:mcp2515_static_filter.c ****  * 1. Redistributions of source code must retain the above copyright
  10:mcp2515_static_filter.c ****  *    notice, this list of conditions and the following disclaimer.
  11:mcp2515_static_filter.c ****  * 2. Redistributions in binary form must reproduce the above copyright
  12:mcp2515_static_filter.c ****  *    notice, this list of conditions and the following disclaimer in the
  13:mcp2515_static_filter.c ****  *    documentation and/or other materials provided with the distribution.
  14:mcp2515_static_filter.c ****  *
  15:mcp2515_static_filter.c ****  * THIS SOFTWARE IS PROVIDED BY THE AUTHOR AND CONTRIBUTORS ``AS IS'' AND
  16:mcp2515_static_filter.c ****  * ANY EXPRESS OR IMPLIED WARRANTIES, INCLUDING, BUT NOT LIMITED TO, THE
  17:mcp2515_static_filter.c ****  * IMPLIED WARRANTIES OF MERCHANTABILITY AND FITNESS FOR A PARTICULAR PURPOSE
  18:mcp2515_static_filter.c ****  * ARE DISCLAIMED.  IN NO EVENT SHALL THE REGENTS OR CONTRIBUTORS BE LIABLE
  19:mcp2515_static_filter.c ****  * FOR ANY DIRECT, INDIRECT, INCIDENTAL, SPECIAL, EXEMPLARY, OR CONSEQUENTIAL
  20:mcp2515_static_filter.c ****  * DAMAGES (INCLUDING, BUT NOT LIMITED TO, PROCUREMENT OF SUBSTITUTE GOODS
  21:mcp2515_static_filter.c ****  * OR SERVICES; LOSS OF USE, DATA, OR PROFITS; OR BUSINESS INTERRUPTION)
  22:mcp2515_static_filter.c ****  * HOWEVER CAUSED AND ON ANY THEORY OF LIABILITY, WHETHER IN CONTRACT, STRICT
  23:mcp2515_static_filter.c ****  * LIABILITY, OR TORT (INCLUDING NEGLIGENCE OR OTHERWISE) ARISING IN ANY WAY
  24:mcp2515_static_filter.c ****  * OUT OF THE USE OF THIS SOFTWARE, EVEN IF ADVISED OF THE POSSIBILITY OF
  25:mcp2515_static_filter.c ****  * SUCH DAMAGE.
  26:mcp2515_static_filter.c ****  *
  27:mcp2515_static_filter.c ****  * $Id: mcp2515_static_filter.c 6564 2008-06-14 11:33:57Z fabian $
  28:mcp2515_static_filter.c ****  */
  29:mcp2515_static_filter.c **** // ----------------------------------------------------------------------------
  30:mcp2515_static_filter.c **** 
  31:mcp2515_static_filter.c **** #include "mcp2515_private.h"
  32:mcp2515_static_filter.c **** #ifdef	SUPPORT_FOR_MCP2515__
  33:mcp2515_static_filter.c **** 
  34:mcp2515_static_filter.c **** // ----------------------------------------------------------------------------
  35:mcp2515_static_filter.c **** // Filter setzen
  36:mcp2515_static_filter.c **** 
  37:mcp2515_static_filter.c **** void mcp2515_static_filter(const uint8_t *filter)
  38:mcp2515_static_filter.c **** {
  16               		.loc 1 38 1 view -0
  17               		.cfi_startproc
  18               		.loc 1 38 1 is_stmt 0 view .LVU1
  19 0000 0F93      		push r16
  20               	.LCFI0:
  21               		.cfi_def_cfa_offset 3
  22               		.cfi_offset 16, -2
  23 0002 1F93      		push r17
  24               	.LCFI1:
  25               		.cfi_def_cfa_offset 4
  26               		.cfi_offset 17, -3
  27 0004 CF93      		push r28
  28               	.LCFI2:
  29               		.cfi_def_cfa_offset 5
  30               		.cfi_offset 28, -4
  31 0006 DF93      		push r29
  32               	.LCFI3:
  33               		.cfi_def_cfa_offset 6
  34               		.cfi_offset 29, -5
  35               	/* prologue: function */
  36               	/* frame size = 0 */
  37               	/* stack size = 4 */
  38               	.L__stack_usage = 4
  39 0008 8C01      		movw r16,r24
  39:mcp2515_static_filter.c **** 	// change to configuration mode
  40:mcp2515_static_filter.c **** 	mcp2515_bit_modify(CANCTRL, 0xe0, (1<<REQOP2));
  40               		.loc 1 40 2 is_stmt 1 view .LVU2
  41 000a 40E8      		ldi r20,lo8(-128)
  42 000c 60EE      		ldi r22,lo8(-32)
  43 000e 8FE0      		ldi r24,lo8(15)
  44               	.LVL1:
  45               		.loc 1 40 2 is_stmt 0 view .LVU3
  46 0010 0E94 0000 		call mcp2515_bit_modify
  47               	.LVL2:
  41:mcp2515_static_filter.c **** 	while ((mcp2515_read_register(CANSTAT) & 0xe0) != (1<<REQOP2))
  48               		.loc 1 41 2 is_stmt 1 view .LVU4
  49               	.L2:
  42:mcp2515_static_filter.c **** 		;
  50               		.loc 1 42 3 discriminator 1 view .LVU5
  41:mcp2515_static_filter.c **** 	while ((mcp2515_read_register(CANSTAT) & 0xe0) != (1<<REQOP2))
  51               		.loc 1 41 8 discriminator 1 view .LVU6
  41:mcp2515_static_filter.c **** 	while ((mcp2515_read_register(CANSTAT) & 0xe0) != (1<<REQOP2))
  52               		.loc 1 41 10 is_stmt 0 discriminator 1 view .LVU7
  53 0014 8EE0      		ldi r24,lo8(14)
  54 0016 0E94 0000 		call mcp2515_read_register
  55               	.LVL3:
  41:mcp2515_static_filter.c **** 	while ((mcp2515_read_register(CANSTAT) & 0xe0) != (1<<REQOP2))
  56               		.loc 1 41 8 discriminator 1 view .LVU8
  57 001a 807E      		andi r24,lo8(-32)
  58 001c 8038      		cpi r24,lo8(-128)
  59 001e 01F4      		brne .L2
  43:mcp2515_static_filter.c **** 	
  44:mcp2515_static_filter.c **** 	mcp2515_write_register(RXB0CTRL, (1<<BUKT));
  60               		.loc 1 44 2 is_stmt 1 view .LVU9
  61 0020 64E0      		ldi r22,lo8(4)
  62 0022 80E6      		ldi r24,lo8(96)
  63 0024 0E94 0000 		call mcp2515_write_register
  64               	.LVL4:
  45:mcp2515_static_filter.c **** 	mcp2515_write_register(RXB1CTRL, 0);
  65               		.loc 1 45 2 view .LVU10
  66 0028 60E0      		ldi r22,0
  67 002a 80E7      		ldi r24,lo8(112)
  68 002c 0E94 0000 		call mcp2515_write_register
  69               	.LVL5:
  46:mcp2515_static_filter.c ****     
  47:mcp2515_static_filter.c **** 	uint8_t i, j;
  70               		.loc 1 47 2 view .LVU11
  48:mcp2515_static_filter.c **** 	for (i = 0; i < 0x30; i += 0x10)
  71               		.loc 1 48 2 view .LVU12
  72               		.loc 1 48 14 view .LVU13
  73               		.loc 1 48 9 is_stmt 0 view .LVU14
  74 0030 C0E0      		ldi r28,0
  75               	.LVL6:
  76               	.L6:
  49:mcp2515_static_filter.c **** 	{
  50:mcp2515_static_filter.c **** 		RESET(MCP2515_CS);
  77               		.loc 1 50 3 is_stmt 1 view .LVU15
  78 0032 C098      		cbi 0x18,0
  51:mcp2515_static_filter.c **** 		spi_putc(SPI_WRITE);
  79               		.loc 1 51 3 view .LVU16
  80 0034 82E0      		ldi r24,lo8(2)
  81 0036 0E94 0000 		call spi_putc
  82               	.LVL7:
  52:mcp2515_static_filter.c **** 		spi_putc(i);
  83               		.loc 1 52 3 view .LVU17
  84 003a 8C2F      		mov r24,r28
  85 003c 0E94 0000 		call spi_putc
  86               	.LVL8:
  53:mcp2515_static_filter.c **** 		
  54:mcp2515_static_filter.c **** 		for (j = 0; j < 12; j++) 
  87               		.loc 1 54 3 view .LVU18
  88               		.loc 1 54 15 view .LVU19
  89               		.loc 1 54 10 is_stmt 0 view .LVU20
  90 0040 D0E0      		ldi r29,0
  91               	.LVL9:
  92               	.L5:
  55:mcp2515_static_filter.c **** 		{
  56:mcp2515_static_filter.c **** 			if (i == 0x20 && j >= 0x08)
  93               		.loc 1 56 4 is_stmt 1 view .LVU21
  94               		.loc 1 56 7 is_stmt 0 view .LVU22
  95 0042 C032      		cpi r28,lo8(32)
  96 0044 01F4      		brne .L3
  97               		.loc 1 56 18 discriminator 1 view .LVU23
  98 0046 D830      		cpi r29,lo8(8)
  99 0048 00F4      		brsh .L4
 100               	.L3:
  57:mcp2515_static_filter.c **** 				break;
  58:mcp2515_static_filter.c **** 			
  59:mcp2515_static_filter.c **** 			spi_putc(pgm_read_byte(filter++));
 101               		.loc 1 59 4 is_stmt 1 discriminator 2 view .LVU24
 102               	.LBB2:
 103               		.loc 1 59 13 discriminator 2 view .LVU25
 104               	.LVL10:
 105               		.loc 1 59 13 is_stmt 0 discriminator 2 view .LVU26
 106 004a 0F5F      		subi r16,-1
 107 004c 1F4F      		sbci r17,-1
 108               	.LVL11:
 109               		.loc 1 59 13 is_stmt 1 discriminator 2 view .LVU27
 110               		.loc 1 59 13 discriminator 2 view .LVU28
 111 004e F801      		movw r30,r16
 112 0050 3197      		sbiw r30,1
 113               	/* #APP */
 114               	 ;  59 "mcp2515_static_filter.c" 1
 115 0052 8491      		lpm r24, Z
 116               		
 117               	 ;  0 "" 2
 118               	.LVL12:
 119               		.loc 1 59 13 discriminator 2 view .LVU29
 120               	/* #NOAPP */
 121               	.LBE2:
 122               		.loc 1 59 4 is_stmt 0 discriminator 2 view .LVU30
 123 0054 0E94 0000 		call spi_putc
 124               	.LVL13:
  54:mcp2515_static_filter.c **** 		{
 125               		.loc 1 54 23 is_stmt 1 discriminator 2 view .LVU31
  54:mcp2515_static_filter.c **** 		{
 126               		.loc 1 54 24 is_stmt 0 discriminator 2 view .LVU32
 127 0058 DF5F      		subi r29,lo8(-(1))
 128               	.LVL14:
  54:mcp2515_static_filter.c **** 		{
 129               		.loc 1 54 15 is_stmt 1 discriminator 2 view .LVU33
  54:mcp2515_static_filter.c **** 		{
 130               		.loc 1 54 3 is_stmt 0 discriminator 2 view .LVU34
 131 005a DC30      		cpi r29,lo8(12)
 132 005c 01F4      		brne .L5
 133               	.LVL15:
 134               	.L4:
  60:mcp2515_static_filter.c **** 		}
  61:mcp2515_static_filter.c **** 		SET(MCP2515_CS);
 135               		.loc 1 61 3 is_stmt 1 discriminator 2 view .LVU35
 136 005e C09A      		sbi 0x18,0
  48:mcp2515_static_filter.c **** 	{
 137               		.loc 1 48 24 discriminator 2 view .LVU36
  48:mcp2515_static_filter.c **** 	{
 138               		.loc 1 48 26 is_stmt 0 discriminator 2 view .LVU37
 139 0060 C05F      		subi r28,lo8(-(16))
 140               	.LVL16:
  48:mcp2515_static_filter.c **** 	{
 141               		.loc 1 48 14 is_stmt 1 discriminator 2 view .LVU38
  48:mcp2515_static_filter.c **** 	{
 142               		.loc 1 48 2 is_stmt 0 discriminator 2 view .LVU39
 143 0062 C033      		cpi r28,lo8(48)
 144 0064 01F4      		brne .L6
 145               	.LVL17:
  62:mcp2515_static_filter.c **** 	}
  63:mcp2515_static_filter.c **** 	
  64:mcp2515_static_filter.c **** 	mcp2515_bit_modify(CANCTRL, 0xe0, 0);
 146               		.loc 1 64 2 is_stmt 1 view .LVU40
 147 0066 40E0      		ldi r20,0
 148 0068 60EE      		ldi r22,lo8(-32)
 149 006a 8FE0      		ldi r24,lo8(15)
 150               	/* epilogue start */
  65:mcp2515_static_filter.c **** }
 151               		.loc 1 65 1 is_stmt 0 view .LVU41
 152 006c DF91      		pop r29
 153               	.LVL18:
 154               		.loc 1 65 1 view .LVU42
 155 006e CF91      		pop r28
 156 0070 1F91      		pop r17
 157 0072 0F91      		pop r16
 158               	.LVL19:
  64:mcp2515_static_filter.c **** }
 159               		.loc 1 64 2 view .LVU43
 160 0074 0C94 0000 		jmp mcp2515_bit_modify
 161               	.LVL20:
 162               		.cfi_endproc
 163               	.LFE19:
 165               	.Letext0:
 166               		.file 2 "/opt/homebrew/Cellar/avr-gcc@9/9.3.0_3/avr/include/stdint.h"
 167               		.file 3 "mcp2515_private.h"
 168               		.file 4 "spi.h"