   1               		.file	"mcp2515_get_dyn_filter.c"
   2               	__SP_H__ = 0x3e
   3               	__SP_L__ = 0x3d
   4               	__SREG__ = 0x3f
   5               	__tmp_reg__ = 0
   6               	__zero_reg__ = 1
   7               		.text
   8               	.Ltext0:
   9               		.cfi_sections	.debug_frame
  10               	.global	can_get_filter
  12               	can_get_filter:
  13               	.LVL0:
  14               	.LFB19:
  15               		.file 1 "mcp2515_get_dyn_filter.c"
   1:mcp2515_get_dyn_filter.c **** // ----------------------------------------------------------------------------
   2:mcp2515_get_dyn_filter.c **** /*
   3:mcp2515_get_dyn_filter.c ****  * Copyright (c) 2007 Fabian Greif, Roboterclub Aachen e.V.
   4:mcp2515_get_dyn_filter.c ****  *  All rights reserved.
   5:mcp2515_get_dyn_filter.c ****  *
   6:mcp2515_get_dyn_filter.c ****  * Redistribution and use in source and binary forms, with or without
   7:mcp2515_get_dyn_filter.c ****  * modification, are permitted provided that the following conditions
   8:mcp2515_get_dyn_filter.c ****  * are met:
   9:mcp2515_get_dyn_filter.c ****  * 1. Redistributions of source code must retain the above copyright
  10:mcp2515_get_dyn_filter.c ****  *    notice, this list of conditions and the following disclaimer.
  11:mcp2515_get_dyn_filter.c ****  * 2. Redistributions in binary form must reproduce the above copyright
  12:mcp2515_get_dyn_filter.c ****  *    notice, this list of conditions and the following disclaimer in the
  13:mcp2515_get_dyn_filter.c ****  *    documentation and/or other materials provided with the distribution.
  14:mcp2515_get_dyn_filter.c ****  *
  15:mcp2515_get_dyn_filter.c ****  * THIS SOFTWARE IS PROVIDED BY THE AUTHOR AND CONTRIBUTORS ``AS IS'' AND
  16:mcp2515_get_dyn_filter.c ****  * ANY EXPRESS OR IMPLIED WARRANTIES, INCLUDING, BUT NOT LIMITED TO, THE
  17:mcp2515_get_dyn_filter.c ****  * IMPLIED WARRANTIES OF MERCHANTABILITY AND FITNESS FOR A PARTICULAR PURPOSE
  18:mcp2515_get_dyn_filter.c ****  * ARE DISCLAIMED.  IN NO EVENT SHALL THE REGENTS OR CONTRIBUTORS BE LIABLE
  19:mcp2515_get_dyn_filter.c ****  * FOR ANY DIRECT, INDIRECT, INCIDENTAL, SPECIAL, EXEMPLARY, OR CONSEQUENTIAL
  20:mcp2515_get_dyn_filter.c ****  * DAMAGES (INCLUDING, BUT NOT LIMITED TO, PROCUREMENT OF SUBSTITUTE GOODS
  21:mcp2515_get_dyn_filter.c ****  * OR SERVICES; LOSS OF USE, DATA, OR PROFITS; OR BUSINESS INTERRUPTION)
  22:mcp2515_get_dyn_filter.c ****  * HOWEVER CAUSED AND ON ANY THEORY OF LIABILITY, WHETHER IN CONTRACT, STRICT
  23:mcp2515_get_dyn_filter.c ****  * LIABILITY, OR TORT (INCLUDING NEGLIGENCE OR OTHERWISE) ARISING IN ANY WAY
  24:mcp2515_get_dyn_filter.c ****  * OUT OF THE USE OF THIS SOFTWARE, EVEN IF ADVISED OF THE POSSIBILITY OF
  25:mcp2515_get_dyn_filter.c ****  * SUCH DAMAGE.
  26:mcp2515_get_dyn_filter.c ****  *
  27:mcp2515_get_dyn_filter.c ****  * $Id: mcp2515_get_dyn_filter.c 6837 2008-11-16 19:05:15Z fabian $
  28:mcp2515_get_dyn_filter.c ****  */
  29:mcp2515_get_dyn_filter.c **** // ----------------------------------------------------------------------------
  30:mcp2515_get_dyn_filter.c **** 
  31:mcp2515_get_dyn_filter.c **** #include "mcp2515_private.h"
  32:mcp2515_get_dyn_filter.c **** #ifdef	SUPPORT_FOR_MCP2515__
  33:mcp2515_get_dyn_filter.c **** 
  34:mcp2515_get_dyn_filter.c **** // ----------------------------------------------------------------------------
  35:mcp2515_get_dyn_filter.c **** // get a filter
  36:mcp2515_get_dyn_filter.c **** 
  37:mcp2515_get_dyn_filter.c **** uint8_t mcp2515_get_filter(uint8_t number, can_filter_t *filter)
  38:mcp2515_get_dyn_filter.c **** {
  16               		.loc 1 38 1 view -0
  17               		.cfi_startproc
  18               		.loc 1 38 1 is_stmt 0 view .LVU1
  19 0000 0F93      		push r16
  20               	.LCFI0:
  21               		.cfi_def_cfa_offset 3
  22               		.cfi_offset 16, -2
  23 0002 1F93      		push r17
  24               	.LCFI1:
  25               		.cfi_def_cfa_offset 4
  26               		.cfi_offset 17, -3
  27 0004 CF93      		push r28
  28               	.LCFI2:
  29               		.cfi_def_cfa_offset 5
  30               		.cfi_offset 28, -4
  31 0006 DF93      		push r29
  32               	.LCFI3:
  33               		.cfi_def_cfa_offset 6
  34               		.cfi_offset 29, -5
  35 0008 00D0      		rcall .
  36 000a 0F92      		push __tmp_reg__
  37               	.LCFI4:
  38               		.cfi_def_cfa_offset 9
  39 000c CDB7      		in r28,__SP_L__
  40 000e DEB7      		in r29,__SP_H__
  41               	.LCFI5:
  42               		.cfi_def_cfa_register 28
  43               	/* prologue: function */
  44               	/* frame size = 3 */
  45               	/* stack size = 7 */
  46               	.L__stack_usage = 7
  47 0010 8A83      		std Y+2,r24
  48 0012 8B01      		movw r16,r22
  39:mcp2515_get_dyn_filter.c **** 	uint8_t mask_address;
  49               		.loc 1 39 2 is_stmt 1 view .LVU2
  40:mcp2515_get_dyn_filter.c **** 	uint8_t filter_address;
  50               		.loc 1 40 2 view .LVU3
  41:mcp2515_get_dyn_filter.c **** 	uint8_t temp;
  51               		.loc 1 41 2 view .LVU4
  42:mcp2515_get_dyn_filter.c **** 	uint8_t mode = mcp2515_read_register(CANSTAT);
  52               		.loc 1 42 2 view .LVU5
  53               		.loc 1 42 17 is_stmt 0 view .LVU6
  54 0014 8EE0      		ldi r24,lo8(14)
  55               	.LVL1:
  56               		.loc 1 42 17 view .LVU7
  57 0016 0E94 0000 		call mcp2515_read_register
  58               	.LVL2:
  59               		.loc 1 42 17 view .LVU8
  60 001a 8B83      		std Y+3,r24
  61               	.LVL3:
  43:mcp2515_get_dyn_filter.c **** 	
  44:mcp2515_get_dyn_filter.c **** 	if (number > 5)
  62               		.loc 1 44 2 is_stmt 1 view .LVU9
  63               		.loc 1 44 5 is_stmt 0 view .LVU10
  64 001c 8A81      		ldd r24,Y+2
  65               	.LVL4:
  66               		.loc 1 44 5 view .LVU11
  67 001e 8630      		cpi r24,lo8(6)
  68 0020 00F0      		brlo .+2
  69 0022 00C0      		rjmp .L10
  45:mcp2515_get_dyn_filter.c **** 		return 0;
  46:mcp2515_get_dyn_filter.c **** 	
  47:mcp2515_get_dyn_filter.c **** 	// change to configuration mode
  48:mcp2515_get_dyn_filter.c **** 	mcp2515_change_operation_mode( (1<<REQOP2) );
  70               		.loc 1 48 2 is_stmt 1 view .LVU12
  71               	.LVL5:
  72               	.LBB6:
  73               	.LBI6:
  74               		.file 2 "mcp2515_private.h"
   1:mcp2515_private.h **** // ----------------------------------------------------------------------------
   2:mcp2515_private.h **** /*
   3:mcp2515_private.h ****  * Copyright (c) 2007 Fabian Greif, Roboterclub Aachen e.V.
   4:mcp2515_private.h ****  *  All rights reserved.
   5:mcp2515_private.h ****  *
   6:mcp2515_private.h ****  * Redistribution and use in source and binary forms, with or without
   7:mcp2515_private.h ****  * modification, are permitted provided that the following conditions
   8:mcp2515_private.h ****  * are met:
   9:mcp2515_private.h ****  * 1. Redistributions of source code must retain the above copyright
  10:mcp2515_private.h ****  *    notice, this list of conditions and the following disclaimer.
  11:mcp2515_private.h ****  * 2. Redistributions in binary form must reproduce the above copyright
  12:mcp2515_private.h ****  *    notice, this list of conditions and the following disclaimer in the
  13:mcp2515_private.h ****  *    documentation and/or other materials provided with the distribution.
  14:mcp2515_private.h ****  *
  15:mcp2515_private.h ****  * THIS SOFTWARE IS PROVIDED BY THE AUTHOR AND CONTRIBUTORS ``AS IS'' AND
  16:mcp2515_private.h ****  * ANY EXPRESS OR IMPLIED WARRANTIES, INCLUDING, BUT NOT LIMITED TO, THE
  17:mcp2515_private.h ****  * IMPLIED WARRANTIES OF MERCHANTABILITY AND FITNESS FOR A PARTICULAR PURPOSE
  18:mcp2515_private.h ****  * ARE DISCLAIMED.  IN NO EVENT SHALL THE REGENTS OR CONTRIBUTORS BE LIABLE
  19:mcp2515_private.h ****  * FOR ANY DIRECT, INDIRECT, INCIDENTAL, SPECIAL, EXEMPLARY, OR CONSEQUENTIAL
  20:mcp2515_private.h ****  * DAMAGES (INCLUDING, BUT NOT LIMITED TO, PROCUREMENT OF SUBSTITUTE GOODS
  21:mcp2515_private.h ****  * OR SERVICES; LOSS OF USE, DATA, OR PROFITS; OR BUSINESS INTERRUPTION)
  22:mcp2515_private.h ****  * HOWEVER CAUSED AND ON ANY THEORY OF LIABILITY, WHETHER IN CONTRACT, STRICT
  23:mcp2515_private.h ****  * LIABILITY, OR TORT (INCLUDING NEGLIGENCE OR OTHERWISE) ARISING IN ANY WAY
  24:mcp2515_private.h ****  * OUT OF THE USE OF THIS SOFTWARE, EVEN IF ADVISED OF THE POSSIBILITY OF
  25:mcp2515_private.h ****  * SUCH DAMAGE.
  26:mcp2515_private.h ****  *
  27:mcp2515_private.h ****  * $Id: mcp2515_private.h 6910 2008-11-30 21:13:14Z fabian $
  28:mcp2515_private.h ****  */
  29:mcp2515_private.h **** // ----------------------------------------------------------------------------
  30:mcp2515_private.h **** 
  31:mcp2515_private.h **** #ifndef	MCP2515_PRIVATE_H
  32:mcp2515_private.h **** #define	MCP2515_PRIVATE_H
  33:mcp2515_private.h **** 
  34:mcp2515_private.h **** // ----------------------------------------------------------------------------
  35:mcp2515_private.h **** /**
  36:mcp2515_private.h ****  * \brief	defines only used inside the library
  37:mcp2515_private.h ****  *
  38:mcp2515_private.h ****  * \author	Fabian Greif <fabian.greif@rwth-aachen.de>
  39:mcp2515_private.h ****  * \version	$Id: mcp2515_private.h 6910 2008-11-30 21:13:14Z fabian $
  40:mcp2515_private.h ****  *
  41:mcp2515_private.h ****  * \todo	MCP2515_TXRTSn Pins nutzbar machen.
  42:mcp2515_private.h ****  */
  43:mcp2515_private.h **** // ----------------------------------------------------------------------------
  44:mcp2515_private.h **** 
  45:mcp2515_private.h **** #include <avr/io.h>
  46:mcp2515_private.h **** #include <avr/pgmspace.h>
  47:mcp2515_private.h **** #include <inttypes.h>
  48:mcp2515_private.h **** #include <stdbool.h>
  49:mcp2515_private.h **** 
  50:mcp2515_private.h **** #include "can.h"
  51:mcp2515_private.h **** #include "utils.h"
  52:mcp2515_private.h **** 
  53:mcp2515_private.h **** #include "can_private.h"
  54:mcp2515_private.h **** #include "spi.h"
  55:mcp2515_private.h **** 
  56:mcp2515_private.h **** // ----------------------------------------------------------------------------
  57:mcp2515_private.h **** 
  58:mcp2515_private.h **** #if (BUILD_FOR_MCP2515 == 1)
  59:mcp2515_private.h **** 	#if defined(__AVR_ATmega16__) || defined(__AVR_ATmega32__) || defined(__AVR_ATmega644__)
  60:mcp2515_private.h **** 		#define	P_MOSI	B,5
  61:mcp2515_private.h **** 		#define	P_MISO	B,6
  62:mcp2515_private.h **** 		#define	P_SCK	B,7
  63:mcp2515_private.h **** 		#define	SUPPORT_FOR_MCP2515__
  64:mcp2515_private.h **** 	#elif defined(__AVR_AT90USB82__) || defined(__AVR_AT90USB162__)
  65:mcp2515_private.h **** 		#define P_MOSI  B,2
  66:mcp2515_private.h **** 		#define P_MISO  B,3
  67:mcp2515_private.h **** 		#define P_SCK   B,1
  68:mcp2515_private.h **** 		#define SUPPORT_FOR_MCP2515__
  69:mcp2515_private.h **** 	#elif defined(__AVR_ATmega8__)  || defined(__AVR_ATmega48__) || \
  70:mcp2515_private.h **** 		  defined(__AVR_ATmega88__) || defined(__AVR_ATmega168__) || defined(__AVR_ATmega328P__)
  71:mcp2515_private.h **** 		#define	P_MOSI	B,3
  72:mcp2515_private.h **** 		#define	P_MISO	B,4
  73:mcp2515_private.h **** 		#define	P_SCK	B,5
  74:mcp2515_private.h **** 		#define	SUPPORT_FOR_MCP2515__
  75:mcp2515_private.h **** 	#elif defined(__AVR_ATmega128__)
  76:mcp2515_private.h **** 		#define	P_MOSI	B,2
  77:mcp2515_private.h **** 		#define	P_MISO	B,3
  78:mcp2515_private.h **** 		#define	P_SCK	B,1
  79:mcp2515_private.h **** 		#define	SUPPORT_FOR_MCP2515__
  80:mcp2515_private.h **** 	#elif defined(__AVR_ATtiny45__) || defined(__AVR_ATtiny85__)
  81:mcp2515_private.h **** 		#define	P_MOSI	B,0
  82:mcp2515_private.h **** 		#define	P_MISO	B,1
  83:mcp2515_private.h **** 		#define	P_SCK	B,2
  84:mcp2515_private.h **** 		
  85:mcp2515_private.h **** 		#define	USE_SOFTWARE_SPI		1
  86:mcp2515_private.h **** 		#define	SUPPORT_FOR_MCP2515__
  87:mcp2515_private.h **** 	#else
  88:mcp2515_private.h **** 		#error	choosen AVR-type is not supported yet!
  89:mcp2515_private.h **** 	#endif
  90:mcp2515_private.h **** #endif
  91:mcp2515_private.h **** 
  92:mcp2515_private.h **** 
  93:mcp2515_private.h **** #ifdef  SUPPORT_FOR_MCP2515__
  94:mcp2515_private.h **** 
  95:mcp2515_private.h **** // ----------------------------------------------------------------------------
  96:mcp2515_private.h **** // load some default values
  97:mcp2515_private.h **** 
  98:mcp2515_private.h **** #ifndef	MCP2515_CLKOUT_PRESCALER
  99:mcp2515_private.h **** 	#define	MCP2515_CLKOUT_PRESCALER	0
 100:mcp2515_private.h **** #endif
 101:mcp2515_private.h **** #ifndef	MCP2515_INTERRUPTS
 102:mcp2515_private.h **** 	#define	MCP2515_INTERRUPTS			(1<<RX1IE)|(1<<RX0IE)
 103:mcp2515_private.h **** #endif
 104:mcp2515_private.h **** 
 105:mcp2515_private.h **** // ----------------------------------------------------------------------------
 106:mcp2515_private.h **** // TODO: this file is imcompatible with the at90can
 107:mcp2515_private.h **** #include "mcp2515_defs.h"
 108:mcp2515_private.h **** 
 109:mcp2515_private.h **** #ifndef	MCP2515_CS
 110:mcp2515_private.h **** 	#error	MCP2515_CS ist nicht definiert!
 111:mcp2515_private.h **** #endif
 112:mcp2515_private.h **** 
 113:mcp2515_private.h **** #if defined(MCP2515_RX0BF) && !defined(MCP2515_RX1BF)
 114:mcp2515_private.h **** 	#warning	only MCP2515_RX0BF but not MCP2515_RX1BF defined!
 115:mcp2515_private.h **** #elif !defined(MCP2515_RX0BF) && defined(MCP2515_RX1BF)
 116:mcp2515_private.h **** 	#warning	only MCP2515_RX1BF but not MCP2515_RX0BF defined!
 117:mcp2515_private.h **** #elif defined(MCP2515_RX0BF) && defined(MCP2515_RX1BF)
 118:mcp2515_private.h **** 	#define	RXnBF_FUNKTION
 119:mcp2515_private.h **** #endif
 120:mcp2515_private.h **** 
 121:mcp2515_private.h **** // -------------------------------------------------------------------------
 122:mcp2515_private.h **** /**
 123:mcp2515_private.h ****  * \brief	Beschreiben von internen Registern
 124:mcp2515_private.h ****  */
 125:mcp2515_private.h **** extern void mcp2515_write_register( uint8_t adress, uint8_t data );
 126:mcp2515_private.h **** 
 127:mcp2515_private.h **** // -------------------------------------------------------------------------
 128:mcp2515_private.h **** /**
 129:mcp2515_private.h ****  * \brief	Lesen der internen Register
 130:mcp2515_private.h ****  */
 131:mcp2515_private.h **** extern uint8_t mcp2515_read_register(uint8_t adress);
 132:mcp2515_private.h **** 
 133:mcp2515_private.h **** extern uint8_t mcp2515_read_status(uint8_t type);
 134:mcp2515_private.h **** 
 135:mcp2515_private.h **** // -------------------------------------------------------------------------
 136:mcp2515_private.h **** /**
 137:mcp2515_private.h ****  * \brief	Setzten/loeschen einzelner Bits
 138:mcp2515_private.h ****  *
 139:mcp2515_private.h ****  * Diese Funktionen laesst sich nur auf die Register BFPCTRL, 
 140:mcp2515_private.h ****  * TXRTSCTRL, CANCTRL, CNF1, CNF2, CNF3, CANINTE, CANINTF, EFLG,
 141:mcp2515_private.h ****  * TXB0CTRL, TXB1CTRL, TXB2CTRL, RXB0CTRL und RXB1CTRL anwenden.
 142:mcp2515_private.h ****  *
 143:mcp2515_private.h ****  * \see		Datenblatt des MCP2515, Registerbersichtstabelle
 144:mcp2515_private.h ****  */
 145:mcp2515_private.h **** extern void mcp2515_bit_modify(uint8_t adress, uint8_t mask, uint8_t data);
 146:mcp2515_private.h **** 
 147:mcp2515_private.h **** // -------------------------------------------------------------------------
 148:mcp2515_private.h **** extern __attribute__ ((gnu_inline)) inline void mcp2515_change_operation_mode(uint8_t mode)
  75               		.loc 2 148 49 view .LVU13
  76               	.LBB7:
 149:mcp2515_private.h **** {
 150:mcp2515_private.h **** 	mcp2515_bit_modify(CANCTRL, 0xe0, mode);
  77               		.loc 2 150 2 view .LVU14
  78 0024 40E8      		ldi r20,lo8(-128)
  79 0026 60EE      		ldi r22,lo8(-32)
  80 0028 8FE0      		ldi r24,lo8(15)
  81 002a 0E94 0000 		call mcp2515_bit_modify
  82               	.LVL6:
 151:mcp2515_private.h **** 	while ((mcp2515_read_register(CANSTAT) & 0xe0) != (mode & 0xe0))
  83               		.loc 2 151 2 view .LVU15
  84               	.L3:
 152:mcp2515_private.h **** 		;
  85               		.loc 2 152 3 view .LVU16
 151:mcp2515_private.h **** 	while ((mcp2515_read_register(CANSTAT) & 0xe0) != (mode & 0xe0))
  86               		.loc 2 151 8 view .LVU17
 151:mcp2515_private.h **** 	while ((mcp2515_read_register(CANSTAT) & 0xe0) != (mode & 0xe0))
  87               		.loc 2 151 10 is_stmt 0 view .LVU18
  88 002e 8EE0      		ldi r24,lo8(14)
  89 0030 0E94 0000 		call mcp2515_read_register
  90               	.LVL7:
 151:mcp2515_private.h **** 	while ((mcp2515_read_register(CANSTAT) & 0xe0) != (mode & 0xe0))
  91               		.loc 2 151 49 view .LVU19
  92 0034 90E8      		ldi r25,lo8(-128)
  93 0036 980F      		add r25,r24
 151:mcp2515_private.h **** 	while ((mcp2515_read_register(CANSTAT) & 0xe0) != (mode & 0xe0))
  94               		.loc 2 151 8 view .LVU20
  95 0038 907E      		andi r25,lo8(-32)
  96 003a 01F4      		brne .L3
  97               	.LVL8:
 151:mcp2515_private.h **** 	while ((mcp2515_read_register(CANSTAT) & 0xe0) != (mode & 0xe0))
  98               		.loc 2 151 8 view .LVU21
  99               	.LBE7:
 100               	.LBE6:
  49:mcp2515_get_dyn_filter.c **** 	
  50:mcp2515_get_dyn_filter.c **** 	if (number <= 1)
 101               		.loc 1 50 2 is_stmt 1 view .LVU22
 102               		.loc 1 50 5 is_stmt 0 view .LVU23
 103 003c 9A81      		ldd r25,Y+2
 104 003e 9230      		cpi r25,lo8(2)
 105 0040 00F4      		brsh .L4
  51:mcp2515_get_dyn_filter.c **** 	{
  52:mcp2515_get_dyn_filter.c **** 		mask_address = RXM0SIDH;
 106               		.loc 1 52 3 is_stmt 1 view .LVU24
 107               	.LVL9:
  53:mcp2515_get_dyn_filter.c **** 		temp = mcp2515_read_register(RXB0CTRL);
 108               		.loc 1 53 3 view .LVU25
 109               		.loc 1 53 10 is_stmt 0 view .LVU26
 110 0042 80E6      		ldi r24,lo8(96)
 111 0044 0E94 0000 		call mcp2515_read_register
 112               	.LVL10:
  52:mcp2515_get_dyn_filter.c **** 		temp = mcp2515_read_register(RXB0CTRL);
 113               		.loc 1 52 16 view .LVU27
 114 0048 E0E2      		ldi r30,lo8(32)
 115 004a E983      		std Y+1,r30
 116               	.LVL11:
 117               	.L5:
  54:mcp2515_get_dyn_filter.c **** 	}
  55:mcp2515_get_dyn_filter.c **** 	else
  56:mcp2515_get_dyn_filter.c **** 	{
  57:mcp2515_get_dyn_filter.c **** 		mask_address = RXM1SIDH;
  58:mcp2515_get_dyn_filter.c **** 		temp = mcp2515_read_register(RXB1CTRL);
  59:mcp2515_get_dyn_filter.c **** 	}
  60:mcp2515_get_dyn_filter.c **** 	
  61:mcp2515_get_dyn_filter.c **** 	temp &= (1<<RXM1)|(1<<RXM0);
 118               		.loc 1 61 2 is_stmt 1 view .LVU28
  62:mcp2515_get_dyn_filter.c **** 	
  63:mcp2515_get_dyn_filter.c **** 	if (temp == 0) {
 119               		.loc 1 63 2 view .LVU29
  61:mcp2515_get_dyn_filter.c **** 	
 120               		.loc 1 61 7 is_stmt 0 view .LVU30
 121 004c 8076      		andi r24,lo8(96)
 122               	.LVL12:
 123               		.loc 1 63 5 view .LVU31
 124 004e 01F4      		brne .L6
  64:mcp2515_get_dyn_filter.c **** 		// filter and masks are disabled
  65:mcp2515_get_dyn_filter.c **** 		#if SUPPORT_EXTENDED_CANID
  66:mcp2515_get_dyn_filter.c **** 		filter->flags.extended = 0;
  67:mcp2515_get_dyn_filter.c **** 		#endif
  68:mcp2515_get_dyn_filter.c **** 		filter->flags.rtr = 0;
 125               		.loc 1 68 3 is_stmt 1 view .LVU32
 126               		.loc 1 68 21 is_stmt 0 view .LVU33
 127 0050 F801      		movw r30,r16
 128 0052 8481      		ldd r24,Z+4
 129               	.LVL13:
 130               		.loc 1 68 21 view .LVU34
 131 0054 8C7F      		andi r24,lo8(-4)
 132 0056 8483      		std Z+4,r24
  69:mcp2515_get_dyn_filter.c **** 		filter->mask = 0;
 133               		.loc 1 69 3 is_stmt 1 view .LVU35
 134               		.loc 1 69 16 is_stmt 0 view .LVU36
 135 0058 1382      		std Z+3,__zero_reg__
 136 005a 1282      		std Z+2,__zero_reg__
  70:mcp2515_get_dyn_filter.c **** 		filter->id = 0;
 137               		.loc 1 70 3 is_stmt 1 view .LVU37
 138               		.loc 1 70 14 is_stmt 0 view .LVU38
 139 005c 1182      		std Z+1,__zero_reg__
 140 005e 1082      		st Z,__zero_reg__
  71:mcp2515_get_dyn_filter.c **** 		
  72:mcp2515_get_dyn_filter.c **** 		return 1;
 141               		.loc 1 72 3 is_stmt 1 view .LVU39
 142               	.LVL14:
 143               	.L13:
  73:mcp2515_get_dyn_filter.c **** 	}
  74:mcp2515_get_dyn_filter.c **** 	
  75:mcp2515_get_dyn_filter.c **** 	#if SUPPORT_EXTENDED_CANID
  76:mcp2515_get_dyn_filter.c **** 	// transform bits so that they match the format from can.h
  77:mcp2515_get_dyn_filter.c **** 	temp >>= 5;
  78:mcp2515_get_dyn_filter.c **** 	temp = ~temp;
  79:mcp2515_get_dyn_filter.c **** 	if (temp & 1) temp = 0x3;
  80:mcp2515_get_dyn_filter.c **** 	
  81:mcp2515_get_dyn_filter.c **** 	filter->flags.extended = temp;
  82:mcp2515_get_dyn_filter.c **** 	#endif
  83:mcp2515_get_dyn_filter.c **** 	
  84:mcp2515_get_dyn_filter.c **** 	// read mask
  85:mcp2515_get_dyn_filter.c **** 	RESET(MCP2515_CS);
  86:mcp2515_get_dyn_filter.c **** 	spi_putc(SPI_READ);
  87:mcp2515_get_dyn_filter.c **** 	spi_putc(mask_address);
  88:mcp2515_get_dyn_filter.c **** 	mcp2515_read_id(&filter->mask);
  89:mcp2515_get_dyn_filter.c **** 	SET(MCP2515_CS);
  90:mcp2515_get_dyn_filter.c **** 	
  91:mcp2515_get_dyn_filter.c **** 	if (number <= 2)
  92:mcp2515_get_dyn_filter.c **** 	{
  93:mcp2515_get_dyn_filter.c **** 		filter_address = RXF0SIDH + number * 4;
  94:mcp2515_get_dyn_filter.c **** 	}
  95:mcp2515_get_dyn_filter.c **** 	else
  96:mcp2515_get_dyn_filter.c **** 	{
  97:mcp2515_get_dyn_filter.c **** 		filter_address = RXF3SIDH + (number - 3) * 4;
  98:mcp2515_get_dyn_filter.c **** 	}
  99:mcp2515_get_dyn_filter.c **** 	
 100:mcp2515_get_dyn_filter.c **** 	// read filter
 101:mcp2515_get_dyn_filter.c **** 	RESET(MCP2515_CS);
 102:mcp2515_get_dyn_filter.c **** 	spi_putc(SPI_READ);
 103:mcp2515_get_dyn_filter.c **** 	spi_putc(filter_address);
 104:mcp2515_get_dyn_filter.c **** 	mcp2515_read_id(&filter->id);
 105:mcp2515_get_dyn_filter.c **** 	SET(MCP2515_CS);
 106:mcp2515_get_dyn_filter.c **** 	
 107:mcp2515_get_dyn_filter.c **** 	// restore previous mode
 108:mcp2515_get_dyn_filter.c **** 	mcp2515_change_operation_mode( mode );
 109:mcp2515_get_dyn_filter.c **** 	
 110:mcp2515_get_dyn_filter.c **** 	return 1;
 144               		.loc 1 110 9 is_stmt 0 view .LVU40
 145 0060 81E0      		ldi r24,lo8(1)
 146               	.L1:
 147               	/* epilogue start */
 111:mcp2515_get_dyn_filter.c **** }
 148               		.loc 1 111 1 view .LVU41
 149 0062 0F90      		pop __tmp_reg__
 150 0064 0F90      		pop __tmp_reg__
 151 0066 0F90      		pop __tmp_reg__
 152 0068 DF91      		pop r29
 153 006a CF91      		pop r28
 154               	.LVL15:
 155               		.loc 1 111 1 view .LVU42
 156 006c 1F91      		pop r17
 157               	.LVL16:
 158               		.loc 1 111 1 view .LVU43
 159 006e 0F91      		pop r16
 160               	.LVL17:
 161               		.loc 1 111 1 view .LVU44
 162 0070 0895      		ret
 163               	.LVL18:
 164               	.L4:
  57:mcp2515_get_dyn_filter.c **** 		temp = mcp2515_read_register(RXB1CTRL);
 165               		.loc 1 57 3 is_stmt 1 view .LVU45
  58:mcp2515_get_dyn_filter.c **** 	}
 166               		.loc 1 58 3 view .LVU46
  58:mcp2515_get_dyn_filter.c **** 	}
 167               		.loc 1 58 10 is_stmt 0 view .LVU47
 168 0072 80E7      		ldi r24,lo8(112)
 169 0074 0E94 0000 		call mcp2515_read_register
 170               	.LVL19:
  57:mcp2515_get_dyn_filter.c **** 		temp = mcp2515_read_register(RXB1CTRL);
 171               		.loc 1 57 16 view .LVU48
 172 0078 F4E2      		ldi r31,lo8(36)
 173 007a F983      		std Y+1,r31
 174 007c 00C0      		rjmp .L5
 175               	.LVL20:
 176               	.L6:
  85:mcp2515_get_dyn_filter.c **** 	spi_putc(SPI_READ);
 177               		.loc 1 85 2 is_stmt 1 view .LVU49
 178 007e C098      		cbi 0x18,0
  86:mcp2515_get_dyn_filter.c **** 	spi_putc(mask_address);
 179               		.loc 1 86 2 view .LVU50
 180 0080 83E0      		ldi r24,lo8(3)
 181               	.LVL21:
  86:mcp2515_get_dyn_filter.c **** 	spi_putc(mask_address);
 182               		.loc 1 86 2 is_stmt 0 view .LVU51
 183 0082 0E94 0000 		call spi_putc
 184               	.LVL22:
  87:mcp2515_get_dyn_filter.c **** 	mcp2515_read_id(&filter->mask);
 185               		.loc 1 87 2 is_stmt 1 view .LVU52
 186 0086 8981      		ldd r24,Y+1
 187 0088 0E94 0000 		call spi_putc
 188               	.LVL23:
  88:mcp2515_get_dyn_filter.c **** 	SET(MCP2515_CS);
 189               		.loc 1 88 2 view .LVU53
 190 008c C801      		movw r24,r16
 191 008e 0296      		adiw r24,2
 192 0090 0E94 0000 		call mcp2515_read_id
 193               	.LVL24:
  89:mcp2515_get_dyn_filter.c **** 	
 194               		.loc 1 89 2 view .LVU54
 195 0094 C09A      		sbi 0x18,0
  91:mcp2515_get_dyn_filter.c **** 	{
 196               		.loc 1 91 2 view .LVU55
  91:mcp2515_get_dyn_filter.c **** 	{
 197               		.loc 1 91 5 is_stmt 0 view .LVU56
 198 0096 FA81      		ldd r31,Y+2
 199 0098 F330      		cpi r31,lo8(3)
 200 009a 00F4      		brsh .L7
  93:mcp2515_get_dyn_filter.c **** 	}
 201               		.loc 1 93 3 is_stmt 1 view .LVU57
  93:mcp2515_get_dyn_filter.c **** 	}
 202               		.loc 1 93 18 is_stmt 0 view .LVU58
 203 009c FF0F      		lsl r31
 204 009e FF0F      		lsl r31
 205 00a0 F983      		std Y+1,r31
 206               	.LVL25:
 207               	.L8:
 101:mcp2515_get_dyn_filter.c **** 	spi_putc(SPI_READ);
 208               		.loc 1 101 2 is_stmt 1 view .LVU59
 209 00a2 C098      		cbi 0x18,0
 102:mcp2515_get_dyn_filter.c **** 	spi_putc(filter_address);
 210               		.loc 1 102 2 view .LVU60
 211 00a4 83E0      		ldi r24,lo8(3)
 212 00a6 0E94 0000 		call spi_putc
 213               	.LVL26:
 103:mcp2515_get_dyn_filter.c **** 	mcp2515_read_id(&filter->id);
 214               		.loc 1 103 2 view .LVU61
 215 00aa 8981      		ldd r24,Y+1
 216 00ac 0E94 0000 		call spi_putc
 217               	.LVL27:
 104:mcp2515_get_dyn_filter.c **** 	SET(MCP2515_CS);
 218               		.loc 1 104 2 view .LVU62
 219 00b0 C801      		movw r24,r16
 220 00b2 0E94 0000 		call mcp2515_read_id
 221               	.LVL28:
 105:mcp2515_get_dyn_filter.c **** 	
 222               		.loc 1 105 2 view .LVU63
 223 00b6 C09A      		sbi 0x18,0
 108:mcp2515_get_dyn_filter.c **** 	
 224               		.loc 1 108 2 view .LVU64
 225               	.LVL29:
 226               	.LBB8:
 227               	.LBI8:
 148:mcp2515_private.h **** {
 228               		.loc 2 148 49 view .LVU65
 229               	.LBB9:
 150:mcp2515_private.h **** 	while ((mcp2515_read_register(CANSTAT) & 0xe0) != (mode & 0xe0))
 230               		.loc 2 150 2 view .LVU66
 231 00b8 4B81      		ldd r20,Y+3
 232 00ba 60EE      		ldi r22,lo8(-32)
 233 00bc 8FE0      		ldi r24,lo8(15)
 234 00be 0E94 0000 		call mcp2515_bit_modify
 235               	.LVL30:
 151:mcp2515_private.h **** 		;
 236               		.loc 2 151 2 view .LVU67
 237               	.L9:
 238               		.loc 2 152 3 view .LVU68
 151:mcp2515_private.h **** 		;
 239               		.loc 2 151 8 view .LVU69
 151:mcp2515_private.h **** 		;
 240               		.loc 2 151 10 is_stmt 0 view .LVU70
 241 00c2 8EE0      		ldi r24,lo8(14)
 242 00c4 0E94 0000 		call mcp2515_read_register
 243               	.LVL31:
 151:mcp2515_private.h **** 		;
 244               		.loc 2 151 49 view .LVU71
 245 00c8 9B81      		ldd r25,Y+3
 246 00ca 9827      		eor r25,r24
 151:mcp2515_private.h **** 		;
 247               		.loc 2 151 8 view .LVU72
 248 00cc 907E      		andi r25,lo8(-32)
 249 00ce 01F4      		brne .L9
 250 00d0 00C0      		rjmp .L13
 251               	.LVL32:
 252               	.L7:
 151:mcp2515_private.h **** 		;
 253               		.loc 2 151 8 view .LVU73
 254               	.LBE9:
 255               	.LBE8:
  97:mcp2515_get_dyn_filter.c **** 	}
 256               		.loc 1 97 3 is_stmt 1 view .LVU74
  97:mcp2515_get_dyn_filter.c **** 	}
 257               		.loc 1 97 18 is_stmt 0 view .LVU75
 258 00d2 8A81      		ldd r24,Y+2
 259 00d4 8F5F      		subi r24,lo8(-(1))
 260 00d6 880F      		lsl r24
 261 00d8 880F      		lsl r24
 262 00da 8983      		std Y+1,r24
 263               	.LVL33:
  97:mcp2515_get_dyn_filter.c **** 	}
 264               		.loc 1 97 18 view .LVU76
 265 00dc 00C0      		rjmp .L8
 266               	.LVL34:
 267               	.L10:
  45:mcp2515_get_dyn_filter.c **** 	
 268               		.loc 1 45 10 view .LVU77
 269 00de 80E0      		ldi r24,0
 270 00e0 00C0      		rjmp .L1
 271               		.cfi_endproc
 272               	.LFE19:
 274               	.Letext0:
 275               		.file 3 "/opt/homebrew/Cellar/avr-gcc@9/9.3.0_3/avr/include/stdint.h"
 276               		.file 4 "../can.h"
 277               		.file 5 "spi.h"